(dp1
S'Microsoft | Windows | 3.X | general purpose'
p2
(lp3
S'Microsoft Windows 3.1 with Trumpet Winsock 2.0 revision B'
p4
asS'Intel | embedded || switch'
p5
(lp6
S'Intel Express 510T switch'
p7
aS'Intel Express 510T switch'
p8
aS'Intel NetStructure 470T Switch'
p9
asS'Ringdale | embedded || print server'
p10
(lp11
S'Ringdale RP21 Print Server'
p12
asS'Cabletron | embedded || switch'
p13
(lp14
S'Cabletron SmartSwitch'
p15
aS'Cabletron switch'
p16
asS'NCR | BSD-misc || general purpose'
p17
(lp18
S'NCR MP-RAS 3.0.x'
p19
aS'NCR MP-RAS 3.01'
p20
aS'NCR S26 server (i386) running NCR MP-RAS SVR4 UNIX System'
p21
aS'NCR server running MP-RAS SVR4 UNIX System Version 3'
p22
asS'Microsoft | embedded || game console'
p23
(lp24
S'Microsoft Xbox (modified)'
p25
aS'Microsoft Xbox (modified) running evolutionX'
p26
aS'Microsoft Xbox (modified) running UnleashX 0.26'
p27
asS'Foundry | IronWare || load balancer'
p28
(lp29
S'Foundry FastIronII 4000 load balancer running 06.6.34T43'
p30
aS'Foundry NetIron load balancer OS Ver. 7.1.23T13'
p31
aS'Foundry Networks, Inc. Router/Load balancer, IronWare Version 06.5.12T43'
p32
aS'Foundry ServerIron XL load balancing IP Switch Version 06.0.00T12'
p33
asS'Linux | Linux | 1.X | general purpose'
p34
(lp35
S'Linux 1.0.9'
p36
aS'Linux 1.2.13'
p37
aS'Linux 1.2.8 - 1.2.13'
p38
aS'Linux 1.3.20 (x86)'
p39
asS'Ericsson | embedded || broadband router'
p40
(lp41
S'Ericsson Congo router'
p42
aS'Ericsson HM220dp ADSL modem/router'
p43
asS'Allied Telesyn | embedded || switch'
p44
(lp45
S'Allied Telesyn AT-3726 Ethernet Switch: 2.1cycleA'
p46
aS'Allied Telesyn AT-8748XL or Rapier 24i Switch'
p47
aS'Allied Telesyn AT-RP24i switch or Ericcson HiS V2.0'
p48
asS'Arescom | embedded || broadband router'
p49
(lp50
S'Arescom 800 series dsl router'
p51
aS'Arescom NetDSL 1000NDS series ADSL router'
p52
asS'Cray | Unisys || general purpose'
p53
(lp54
S'Cray Unisys LX/NX MCP 46.1/HMP 5.0 on LX5120'
p55
asS'Symantec | Windows | NT/2K/XP | firewall'
p56
(lp57
S'Symantec Enterprise Firewall 7.0 running on Windows 2000 SP2'
p58
asS'HP | embedded || printer'
p59
(lp60
S'HP JetDirect Card in a LaserJet printer'
p61
aS'HP LaserJet 4000N Printer'
p62
aS'HP LaserJet 4100N printer'
p63
aS'HP LaserJet 5'
p64
aS'HP printer w/Jet Direct'
p65
aS'HP printer w/JetDirect card'
p66
aS'HP printer w/JetDirect card'
p67
aS'HP printer w/JetDirect card'
p68
aS'HP printer w/JetDirect card'
p69
aS'HP printer w/JetDirect card'
p70
aS'HP printer w/JetDirect J2556b card (firmware A.05.32)'
p71
aS'HP printer w/JetDirect J2556b card firmware A.05.32'
p72
asS'Planet | embedded || WAP'
p73
(lp74
S'Planet WAP 1950 Wireless Access Point'
p75
asS'Linux | Linux | 2.5.X | general purpose'
p76
(lp77
S'Linux 2.4.0 - 2.5.20'
p78
aS'Linux 2.4.0 - 2.5.20 w/o tcp_timestamps'
p79
aS'Linux 2.5.25 - 2.6.8 or Gentoo 1.2 Linux 2.4.19 rc1-rc7'
p80
asS'Microsoft | Windows || general purpose'
p81
(lp82
S'Microsoft Windows 2000 Professional SP4'
p83
aS'Microsoft Windows 2000 Professional with SP4 and latest Windows Update patches as of August 11, 2004'
p84
aS'Microsoft Windows 2000 Server SP3'
p85
aS'Microsoft Windows Longhorn eval build 4051'
p86
asS'Cisco | embedded || VoIP adapter'
p87
(lp88
S'Cisco ATA 186 POTS<->VoIP phone gateway device'
p89
asS'Netgear | embedded || print server'
p90
(lp91
S'Netgear PS101 Print Server'
p92
aS'Netgear PS110 Print Server'
p93
asS'Cyberguard | embedded || firewall'
p94
(lp95
S'Cyberguard 4.0 firewall'
p96
aS'Cyberguard Firewall 5.2'
p97
asS'Netopia | embedded || broadband router'
p98
(lp99
S'Cisco Catalyst 1900 switch, Bay networks 350-450 switch,  or Netopia DSL/ISDN router'
p100
aS'Netopia 4541/R7100 DSL router'
p101
aS'Netopia Cayman 3341-ENT ADSL Router'
p102
aS'Netopia DSL router'
p103
aS'Netopia DSL Router'
p104
aS'Netopia R5300 Router'
p105
aS'Netopia R9100 DSL Router'
p106
asS'Talaris | embedded || printer'
p107
(lp108
S'Talaris 1794 Printstation'
p109
asS'Ricoh | embedded || printer'
p110
(lp111
S'Ricoh Aficio AP4500 Network Laser Printer'
p112
aS'Savin 9927 Copier or Ricoh Aficio 270 copier'
p113
asS'Raptor | Solaris | 2.X | firewall'
p114
(lp115
S'Raptor Firewall 6 on Solaris 2.6'
p116
asS'HP | HP-UX | 9.X | general purpose'
p117
(lp118
S'HP-UX 9.01 - 9.07'
p119
aS'HP-UX A.09.00 E 9000/817 - A.09.07 A 9000/777'
p120
asS'Sony | Linux || specialized'
p121
(lp122
S'Sony PlayStation 2 Performance Analyser'
p123
asS'Ascend | Embedded/OS || router'
p124
(lp125
S'Ascend GRF Router running Ascend Embedded/OS 2.1'
p126
asS'Avocent | embedded || specialized'
p127
(lp128
S'Avocent net KVM switch'
p129
asS'MultiTech | embedded || firewall'
p130
(lp131
S'MultiTech standalone firewall box, version 3'
p132
asS'FreeSCO | Linux | 2.0.X | router'
p133
(lp134
S'FreeSCO 0.27 (Linux 2.0.38)'
p135
aS'FreeSCO 0.27 (Linux 2.0.38)'
p136
asS'Commodore | embedded || game console'
p137
(lp138
S'Commodore 64 with TFE Ethernet Card (Contiki)'
p139
aS'Commodore 64 with TFE Ethernet Card (uIP TCP/IP stack)'
p140
asS'ZoomAir | embedded || WAP'
p141
(lp142
S'ZoomAir IG-4165 Wireless gateway (WAP)'
p143
asS'Checkpoint | Solaris | 8 | firewall'
p144
(lp145
S'Checkpoint Firewall-1 NG on Sun Solaris 8'
p146
asS'Spirent | embedded || specialized'
p147
(lp148
S'Spirent AX4000 Network Testing Tool'
p149
asS'Treck | Treck || general purpose'
p150
(lp151
S'Treck TCP/IP stack v2.1'
p152
asS'Adtran | embedded || telecom-misc'
p153
(lp154
S'Adtran Atlas 890 digital cross-connect device'
p155
asS'FreeBSD | FreeBSD | 4.x | general purpose'
p156
(lp157
S'DragonFly 1.1-Stable (FreeBSD-4 fork)'
p158
asS'Lucent | BSD-misc || general purpose'
p159
(lp160
S'ATT UNIX SVR4.2 on a Lucent Definity voicemail system'
p161
asS'Avaya | embedded || PBX'
p162
(lp163
S'Avaya G3 PBX version 8.3'
p164
aS'Avaya IP Office 403 PBX'
p165
asS'Netgear | embedded || WAP'
p166
(lp167
S'WAP: Compaq iPAQ Connection Point or Netgear MR814'
p168
asS'IBM | VM/CMS || general purpose'
p169
(lp170
S'IBM VM/CMS (mainframe)'
p171
aS'IBM VM/ESA 2.2.0 CMS Mainframe System'
p172
asS'3Com | embedded || PBX'
p173
(lp174
S'3Com NBX PBX'
p175
asS'Blue Coat | embedded || web proxy'
p176
(lp177
S'Blue Coat Security Proxy Appliance'
p178
asS'Motorola | BSD-misc || general purpose'
p179
(lp180
S'Motorola BSR 1000R'
p181
aS'Motorola System V/68 version R3V7 on a 68030'
p182
asS'AXIS | embedded || webcam'
p183
(lp184
S'AXIS 200+ Web Camera running OS v1.42'
p185
aS'AXIS 2120 network camera'
p186
aS'AXIS Neteye 200+ Webcam running software version 1.42'
p187
aS'AXIS NetEye Camera Server V1.20'
p188
asS'Linux | Linux | 2.3.X | general purpose'
p189
(lp190
S'Linux 2.3.12'
p191
aS'Linux 2.3.28-33'
p192
aS'Linux 2.3.47 - 2.3.99-pre2 x86'
p193
aS'Linux 2.3.49 x86'
p194
asS'LG GoldStream | embedded || router'
p195
(lp196
S'LG Goldstream LR3001f router, software version 4.0'
p197
aS'LG Goldstream LR3100p router, software version 1.0-1.5'
p198
asS'Cisco | PIX | 4.X | firewall'
p199
(lp200
S'Cisco PIX 4.2(2) Internal Interface'
p201
aS'Cisco PIX 515 firewall running software 4.4(5)'
p202
aS'Cisco PIX Firewall running PIX 4.1(5)'
p203
aS'Cisco Pix Firewall running PIX 4.1.6'
p204
aS'Cisco PIX v4.2 Firewall'
p205
asS'Cisco | embedded || terminal server'
p206
(lp207
S'Cisco AS5200 terminal server'
p208
asS'Siemens | embedded || PBX'
p209
(lp210
S'Siemens HICOM 300 Phone switch (PBX)'
p211
aS'Siemens HICOM Phone switch (PBX)'
p212
aS'Siemens HiPATH3500 VoIP PBX'
p213
asS'FiberLine | embedded || WAP'
p214
(lp215
S'FiberLine WL-1200R1 (also known as InterEpoch IWE-1200A-1) Wireless Broadband Router (WAP)'
p216
asS'F5 Labs | BSDI || load balancer'
p217
(lp218
S'F5 Labs Big/IP HA TCP/IP Load Balancer (BSDI kernel/x86)'
p219
asS'Minolta | embedded || printer'
p220
(lp221
S'Konica-Minolta Di3010 photocopier/printer/scanner'
p222
aS'Minolta Di183 printer/copier'
p223
asS'Sequent | embedded || general purpose'
p224
(lp225
S'Sequent DYNIX/ptx V4.2.1'
p226
aS'Sequent DYNIX/ptx V4.4.6'
p227
asS'Thales | embedded || encryption accelerator'
p228
(lp229
S'Thales WebSentry HSM Crypto Accelerator'
p230
asS'Atari | Atari || game console'
p231
(lp232
S'MiNT with MiNTnet 1.03 running on Atari TT'
p233
asS'Apple | Mac OS X | 10.4.X | general purpose'
p234
(lp235
S'Apple Mac OS X 10.3.8 or 10.4'
p236
asS'KA9Q | KA9Q || specialized'
p237
(lp238
S'KA9Q amateur radio OS'
p239
asS'Symbol | embedded || WAP'
p240
(lp241
S'Symbol/Spectrum24 Wireless AP'
p242
asS'Infortrend | embedded || storage-misc'
p243
(lp244
S'Infortrend EonStor A16U-G1410'
p245
asS'Cray | UNICOS | 8.X | general purpose'
p246
(lp247
S'Cray UNICOS/mk 8.6'
p248
asS'Tainet | embedded || broadband router'
p249
(lp250
S'Tainet WANpro 2000i Broadband router'
p251
asS'DEC | BSD-misc || general purpose'
p252
(lp253
S'4.3BSD-tahoe on a MicroVax III'
p254
asS'Linux | Linux | 2.6.X | general purpose'
p255
(lp256
S'Linux 2.4.20 or 2.6.0-test5-love3 (x86)'
p257
aS'Linux 2.4.21 - 2.4.23'
p258
aS'Linux 2.4.22 or 2.6.10'
p259
aS'Linux 2.4.7 - 2.6.11'
p260
aS'Linux 2.5.5 (Gentoo)'
p261
aS'Linux 2.6.0 (x86)'
p262
aS'Linux 2.6.0 - 2.6.11'
p263
aS'Linux 2.6.0 - 2.6.11'
p264
aS'Linux 2.6.0 - 2.6.11'
p265
aS'Linux 2.6.0 - 2.6.11'
p266
aS'Linux 2.6.0 - 2.6.11'
p267
aS'Linux 2.6.0-test10 (x86)'
p268
aS'Linux 2.6.0-test5 x86'
p269
aS'Linux 2.6.0-test7 (x86)'
p270
aS'Linux 2.6.0-test9 - 2.6.0 (x86)'
p271
aS'Linux 2.6.10'
p272
aS'Linux 2.6.10'
p273
aS'Linux 2.6.10'
p274
aS'Linux 2.6.10'
p275
aS'Linux 2.6.10 - 2.6.11'
p276
aS'Linux 2.6.11'
p277
aS'Linux 2.6.11 (gentoo)'
p278
aS'Linux 2.6.3 - 2.6.10'
p279
aS'Linux 2.6.3 - 2.6.7 (X86)'
p280
aS'Linux 2.6.3 or 2.6.8'
p281
aS'Linux 2.6.4 (Suse)'
p282
aS'Linux 2.6.5'
p283
aS'Linux 2.6.6'
p284
aS'Linux 2.6.6-1-k7 (X86)'
p285
aS'Linux 2.6.7'
p286
aS'Linux 2.6.7'
p287
aS'Linux 2.6.7'
p288
aS'Linux 2.6.7 (X86)'
p289
aS'Linux 2.6.7 w/grsecurity.org patch'
p290
aS'Linux 2.6.8'
p291
aS'Linux 2.6.8'
p292
aS'Linux 2.6.8'
p293
aS'Linux 2.6.8'
p294
aS'Linux 2.6.8 (Debian)'
p295
aS'Linux 2.6.8 (Ubuntu)'
p296
aS'Linux 2.6.8 - 2.6.11'
p297
aS'Linux 2.6.8 - 2.6.9'
p298
aS'Linux 2.6.9'
p299
aS'Linux 2.6.9'
p300
aS'Linux kernel 2.6.5 - 2.6.8'
p301
asS'2Wire | embedded || WAP'
p302
(lp303
S'2Wire Home Portal 100 residential gateway, v.3.1.0'
p304
asS'Radionics | embedded || specialized'
p305
(lp306
S'Lantronix CoBox serial device server or Radionics RAM IV Alarm'
p307
asS'Cisco | embedded || bridge'
p308
(lp309
S'Cisco Accesspoint 1200'
p310
aS'Cisco AIR-WGB340 V8.38 Wireless workgroup bridge 340'
p311
aS'Cisco WGB350 Wireless WorkGroup Bridge'
p312
asS'Cisco | IOS | 12.X | router'
p313
(lp314
S'Cisco IOS 11.3 - 12.0(11)'
p315
aS'Cisco 1601 router running IOS 12.0(8)'
p316
aS'Cisco 1601R router running IOS 12.1(5)'
p317
aS'Cisco 1721 router running IOS 12.3(10)'
p318
aS'Cisco 2514 router running IOS 12.0(21)'
p319
aS'Cisco 2600 router running IOS 12.2(3)'
p320
aS'Cisco 2610 router running IOS 12.2(21a)'
p321
aS'Cisco 2611 router running IOS 12.0(7)T'
p322
aS'Cisco 2611 router running IOS 12.2(7a)'
p323
aS'Cisco 2620 router running IOS 12.2(15)'
p324
aS'Cisco 2620 router running IOS 12.3(5)'
p325
aS'Cisco 2620 running IOS 12.2(19a)'
p326
aS'Cisco 3660 running IOS 12.0(6r)T'
p327
aS'Cisco 3725 router running IOS 12.3(6c)'
p328
aS'Cisco 3745 Router running IOS 12.2(15)T13'
p329
aS'Cisco 4000 Series running IOS 12.0(10.3)'
p330
aS'Cisco 7200 router running IOS 12.1(14)E6'
p331
aS'Cisco 7200 router running IOS 12.4(1a)'
p332
aS'Cisco 7204 router running IOS 12.1(19)'
p333
aS'Cisco 7206 router running IOS 12.2(13)T8'
p334
aS'Cisco 800 Series Broadband Routers running IOS 12.0(7)T'
p335
aS'Cisco 837 router running IOS 12.3(11)T or Cisco 2811 router running IOS 12.3(8r)T7'
p336
aS'Cisco 837 router running IOS 12.3(8)T'
p337
aS'Cisco AS5350 running IOS 12.2(2)XB6'
p338
aS'Cisco IOS 12.0(3.3)S (perhaps a 7200 router)'
p339
aS'Cisco IOS 12.0(5)WC3 - 12.0(16a)'
p340
aS'Cisco IOS 12.0(7)T (on a 1700 router)'
p341
aS'Cisco IOS 12.1(4) on a 2600 router'
p342
aS'Cisco IOS 12.2(8)T5 on a 7507 router'
p343
aS'Cisco router or WAP running IOS 12.2'
p344
aS'Cisco router running IOS 12.0(18)S or 12.0(18)S1'
p345
aS'Cisco router running IOS 12.1'
p346
aS'Cisco router running IOS 12.1(5)-12.2(7a)'
p347
aS'Cisco router running IOS 12.1.5-12.2.13a'
p348
aS'Cisco router running IOS 12.2(8)T'
p349
aS'Cisco router running IOS 12.3(11)'
p350
aS'Cisco router running IOS v12.0(15)'
p351
aS'Cisco SOHO 91 secure router running IOS 12.3'
p352
aS'Cisco switch running IOS 12.1(23)E'
p353
aS'router Cisco 3640 running IOS 12.2(23a)'
p354
asS'Bell Labs | Plan9 || general purpose'
p355
(lp356
S'Bell Labs Plan9 Fourth Edition'
p357
aS'Bell Labs Plan9 Fourth Edition (x86)'
p358
aS'Bell Labs Plan9 Second Edition'
p359
asS'FreeBSD | FreeBSD | 4.X | general purpose'
p360
(lp361
S'FreeBSD 2.2.1 - 4.1'
p362
aS'FreeBSD 3.2-4.0'
p363
aS'FreeBSD 4.0-20000208-CURRENT'
p364
aS'FreeBSD 4.1.1 - 4.3 (x86)'
p365
aS'FreeBSD 4.10-STABLE'
p366
aS'FreeBSD 4.2 - 4.3-RC (X86)'
p367
aS'FreeBSD 4.3 - 4.4-RELEASE'
p368
aS'FreeBSD 4.3 - 4.4PRERELEASE'
p369
aS'FreeBSD 4.4 for i386 (IA-32)'
p370
aS'FreeBSD 4.4-STABLE'
p371
aS'FreeBSD 4.5-RELEASE (or -STABLE) through 4.6-RC (x86)'
p372
aS'FreeBSD 4.6'
p373
aS'FreeBSD 4.6'
p374
aS'FreeBSD 4.6'
p375
aS'FreeBSD 4.6 through 4.6.2 (July 2002) (x86)'
p376
aS'FreeBSD 4.6-RC on Alpha'
p377
aS'FreeBSD 4.6.2-RELEASE'
p378
aS'FreeBSD 4.6.2-RELEASE - 4.8-RELEASE'
p379
aS'FreeBSD 4.7 - 4.8-RELEASE'
p380
aS'FreeBSD 4.7-RELEASE'
p381
aS'FreeBSD 4.7-RELEASE through 4.8-RELEASE (x86)'
p382
aS'FreeBSD 4.7-RELEASE-p3'
p383
aS'FreeBSD 4.7-STABLE'
p384
aS'FreeBSD 4.8-RELEASE through 4.9-STABLE'
p385
aS'FreeBSD 4.8-STABLE'
p386
aS'FreeBSD 4.8-STABLE'
p387
aS'FreeBSD 4.8-STABLE - 4.9-PRERELEASE'
p388
aS'FreeBSD 4.9 - 5.1'
p389
aS'FreeBSD 4.9-RELEASE'
p390
aS'FreeBSD 4.9-RELEASE'
p391
aS'FreeBSD 4.9-STABLE'
p392
asS'Microbase | VirtuOS || general purpose'
p393
(lp394
S'Microbase VirtuOS v3.00b R.09'
p395
asS'Lantronix | embedded || switch'
p396
(lp397
S'Lantronix LSB4 Ethernet Switch'
p398
asS'EMC | DART || fileserver'
p399
(lp400
S'EMC DART running on a Data Mover fileserver. Version T4.1.8.1'
p401
aS'EMC IP4700 Filer'
p402
asS'Cisco | CBOS || broadband router'
p403
(lp404
S'Cisco 675 DSL router -- cbos 2.1'
p405
asS'Cisco | embedded || switch'
p406
(lp407
S'Cisco 1548M managed switch'
p408
aS'Cisco Catalyst 2820 switch Management Console'
p409
aS'Cisco Catalyst 5500/6500 or Alcatel OmniSwitch/Router'
p410
aS'Cisco Catalyst 6509 switch running IOS Version 12.1(23)E'
p411
aS'Cisco Catalyst switch'
p412
asS'Sega | embedded || game console'
p413
(lp414
S'Sega Dreamcast game console'
p415
asS'Nortel | embedded || terminal server'
p416
(lp417
S'Nortel Networks CVX1800 RAS. Software version 2.02'
p418
asS'Draytek | embedded || broadband router'
p419
(lp420
S'Draytek Vigor 2000 ISDN router'
p421
aS'Draytek Vigor 2200e DSL router v2.1a'
p422
aS'Draytek Vigor 2200e DSL router v2.1b'
p423
asS'Sony | NewsOS || general purpose'
p424
(lp425
S'Sony NewsOS 6.1.2'
p426
asS'FastComm | embedded || specialized'
p427
(lp428
S'FastComm FRAD (Frame Relay Access Device) F9200-DS-DNI -- Ver. 4.2.3A'
p429
asS'Radware | embedded || security-misc'
p430
(lp431
S'Radware Content Inspection Director v2.10.03'
p432
asS'AXIS | embedded || fileserver'
p433
(lp434
S'AXIS or Meridian Data Network CD-ROM server'
p435
aS'AXIS StorPoint CD E100 CD-ROM Server'
p436
aS'AXIS StorPoint CD E100 CD-ROM Server V5.20'
p437
aS'AXIS StorPoint CD E100 CD-ROM Server V5.38'
p438
asS'Microsoft | Windows | PocketPC/CE | PDA'
p439
(lp440
S'Microsoft Windows 95/98/NT 4.0 or PocketPC'
p441
aS'HP Jornada running Microsoft Windows CE 2.11 (Handheld/PC Pro 3.0 PDA)'
p442
aS'Microsoft PocketPC 3.0.11171 running on Compaq iPAQ 3870 Pocket PC'
p443
asS'3Com | embedded || terminal server'
p444
(lp445
S'3Com SuperStack II RAS remote access server'
p446
aS'3Com terminal server ESPL CS2100'
p447
asS'RoadLanner | embedded || broadband router'
p448
(lp449
S'RoadLanner Broadband router BRL-04FW 6.15.02r Build 0091 L:01'
p450
asS'3Com | embedded || broadband router'
p451
(lp452
S'3Com Home Connect Cable Modem'
p453
aS'3Com OfficeConnect 812 aDSL router'
p454
aS'3Com OfficeConnect Remote 812 aDSL Router'
p455
aS'3Com Sharkfin/Tailfin Cable Modem'
p456
aS'3Com Sharkfin/Tailfin Cable Modem'
p457
aS'US Robotics USR8000 Broadband router'
p458
asS'Netburner | embedded || specialized'
p459
(lp460
S'Netburner Model 5282 Embedded Ethernet Microcontroller'
p461
asS'Lucent | ComOS || terminal server'
p462
(lp463
S'Lucent Portmaster 4 running ComOS v4.0.3c2'
p464
asS'Easytel | embedded || broadband router'
p465
(lp466
S'Easytel TeleWell EA-701B ADSL Modem/Router'
p467
asS'SGI | IRIX | 4.X | general purpose'
p468
(lp469
S'SGI IRIX 4.0.5F'
p470
asS'DEC | DIGITAL UNIX | 4.X | general purpose'
p471
(lp472
S'DEC DIGITAL UNIX OSF1 V 4.0-4.0F'
p473
aS'DIGITAL UNIX OSF1 V 4.0,4.0B,4.0D,4.0E,4.0F'
p474
asS'Konica | embedded || printer'
p475
(lp476
S'Konica-Minolta magicolor2300DL printer controller'
p477
aS'Pitney Bowes photocopier, Konica printer/fax/scanner, or Toshiba E-Studio16 printer'
p478
asS'Packet Engines | embedded || router'
p479
(lp480
S'Packet Engines PowerRail 5200 router version 2.6.0r10 - 16 Sep, 1999'
p481
asS'US Robotics | embedded || WAP'
p482
(lp483
S'D-Link DI-804HV VPN Router or US-Robotics 8022 WAP or DI-714P+ Wireless router'
p484
aS'US Robotics Broadband router (model #8000-02)'
p485
aS'US Robotics USR8022 Broadband Wireless router (WAP)'
p486
asS'Cyclades | Cyros || terminal server'
p487
(lp488
S'Cyclades PathRAS Remote Access Server v1.1.8 - 1.3.12'
p489
asS'StackTools | StackTos || general purpose'
p490
(lp491
S'StackTools StackTos 1.0 embedded networking OS'
p492
aS'StackTos 2.1'
p493
asS'MultiTech | embedded || telecom-misc'
p494
(lp495
S'MultiTech MultiVoIP Version 2.01A Firmware'
p496
asS'Nexland | embedded || broadband router'
p497
(lp498
S'Nexland ISB Pro800 Turbo Cable/DSL router'
p499
asS'Fore | embedded || switch'
p500
(lp501
S'Fore ForeThought 7.1.0 ATM switch'
p502
aS'Fore ForeThought 8.3.0.N ATM BX200 switch'
p503
asS'Aironet | embedded || WAP'
p504
(lp505
S'Aironet AP4800E v8.07 - Aironet (Cisco?) 11 Mbps Wireless access point'
p506
asS'Minolta | VxWorks || printer'
p507
(lp508
S'Minolta QMS Printer running VxWorks 5.4.2'
p509
asS'Apple | embedded || printer'
p510
(lp511
S'Apple Color LaserWriter 12/660 PS (Model No. M3036)'
p512
aS'Apple Color LaserWriter 600 Printer'
p513
aS'Apple Color LaserWriter 600 Printer'
p514
aS'Apple LaserWriter 12/640 PS'
p515
aS'Apple LaserWriter 16/600 PS, HP 6P, or HP 5 Printer'
p516
aS'Apple LaserWriter 8500 (PostScript version 3010.103)'
p517
asS'Proteon | OpenRoute || router'
p518
(lp519
S'Proteon OpenRoute 2.1 on a RBX200 Router or IBM 2210 Router'
p520
aS'Proteon OpenRoute 3.0 gt series router'
p521
asS'NetBSD | NetBSD || general purpose'
p522
(lp523
S'NetBSD 1.0 big endian arch'
p524
aS'NetBSD 1.0 little endian arch'
p525
aS'NetBSD 1.1 - 1.2.1 litle endian arch'
p526
aS'NetBSD 1.2 - 1.2.1 big endian arch'
p527
aS'NetBSD 1.3 - 1.3.3 big endian arch'
p528
aS'NetBSD 1.3 - 1.3.3 little endian arch'
p529
aS'NetBSD 1.3H (after 19980919) or 1.3I (before 19990119) little endian arch'
p530
aS'NetBSD 1.3H-1.5  big endian arch'
p531
aS'NetBSD 1.5.2 running on a Commodore Amiga (68040 processor)'
p532
aS'NetBSD 1.5_ALPHA i386'
p533
aS'NetBSD 1.6'
p534
aS'NetBSD 1.6 - 1.6.1 (Alpha)'
p535
aS'NetBSD 1.6 BETA 4 i386 (20020630 snapshot)'
p536
aS'NetBSD 1.6.2 (alpha)'
p537
aS'NetBSD 1.6.2 (X86)'
p538
aS'NetBSD 1.6.2 - 2.0_BETA or Avocent Switchview net KVM switch'
p539
aS'NetBSD 1.6ZC (SPARC)'
p540
aS'NetBSD 1.6ZD'
p541
aS'NetBSD 2.0'
p542
aS'NetBSD 2.0'
p543
aS'NetBSD/Alpha 1.5.2 on a DEC 000/300 LX'
p544
asS'XCD | embedded || print server'
p545
(lp546
S'XCD Xconnect Print Server, firmware version CC8S-3.58 (98.09.21)'
p547
asS'Panasonic | embedded || broadband router'
p548
(lp549
S'Panasonic IP Technology Broadband Networking Gateway, KX-HGW200'
p550
asS'RCA | embedded || broadband router'
p551
(lp552
S'RCA/Thomson cable modem DCM-235/245'
p553
asS'Symantec | Solaris | 8 | firewall'
p554
(lp555
S'Symantec Enterprise Firewall v7.0.4 (on Solaris 8)'
p556
asS'BSDI | BSD/OS | 3.X | general purpose'
p557
(lp558
S'BSDI BSD/OS 3.0-3.1 (or possibly Mac OS, NetBSD)'
p559
asS'Sun | Solaris | 9 | general purpose'
p560
(lp561
S'Sun Solaris 9'
p562
aS'Sun Solaris 9'
p563
aS'Sun Solaris 9'
p564
aS'Sun Solaris 9 with TCP_STRONG_ISS set to 2'
p565
asS'Extreme Networks | Extremeware || switch'
p566
(lp567
S'Extreme Networks Alpine 3804 Switch running Extremeware 6.2.1'
p568
aS'Extremeware 6.2.2'
p569
asS'Extreme Networks | embedded || switch'
p570
(lp571
S'Extreme Gigabit switch (unknown version)'
p572
aS'Extreme Networks Black Diamond switch'
p573
asS'Blue Coat | SGOS || web proxy'
p574
(lp575
S'Blue Coat ProxySG (SGOS 3.2.2.1)'
p576
aS'Blue Coat Secure Gateway'
p577
aS'BlueCoat SG4'
p578
asS'Telos | embedded || media device'
p579
(lp580
S'Telos Zephyr Xstream v2.71p ISDN/POTS/Ethernet audio transceiver'
p581
asS'Global Technology Associates | embedded || firewall'
p582
(lp583
S'Gnat Box Light firewall v3.0.3 (from the inside interface)'
p584
asS'IBM | MVS || general purpose'
p585
(lp586
S'IBM MVS'
p587
aS'IBM MVS TCP/IP stack V. 3.2 or AIX 4.3.2'
p588
aS'IBM MVS TCP/IP TCPMVS 3.2'
p589
aS'IBM MVS TCP/IP TCPOE 3.3'
p590
asS'PCS | embedded || specialized'
p591
(lp592
S'PCS Intus 3100 time management device'
p593
asS'HP | MPE/iX || general purpose'
p594
(lp595
S'HP MPE/iX 5.5'
p596
aS'HP MPE/iX 5.5 on HP 3000'
p597
asS'Bay Networks | embedded || router'
p598
(lp599
S'Bay Networks BLN-2 Network Router or ASN Processor revision 9'
p600
aS'Bay Networks Instant Internet router'
p601
aS'Bay Networks Instant Internet router'
p602
aS'Baystack Instant Internet 400 SoHo Router'
p603
asS'SMC | embedded || WAP'
p604
(lp605
S'SMC Barricade Router, firmware 1.94a'
p606
aS'SMC Barricade Wireless Broadband Router (firmware R1.93e)'
p607
asS'US Robotics | embedded || switch'
p608
(lp609
S'Kentrox DataSMART 656 CSU/DSU, USR NETserver/16, or 3Com OfficeConnect ADSL router'
p610
asS'Billion | embedded || broadband router'
p611
(lp612
S'Billion ADSL router'
p613
aS'Billion BIPAC-741GE V2 aDSL Router'
p614
asS'Allied Telesyn | embedded || hub'
p615
(lp616
S'Allied Telesyn AT-S10 version 3.0 on an AT-TS24TR hub'
p617
asS'Brix Networks | embedded || specialized'
p618
(lp619
S'Brix 1000 Verifier'
p620
asS'Systech | embedded || specialized'
p621
(lp622
S'Systech RCS/3182 Ethernet serial port server (firmware 06D)'
p623
asS'Elsa | embedded || broadband router'
p624
(lp625
S'ELSA LANCOM 1100 office router'
p626
aS'ELSA LANCOM DSL I-10 Office router'
p627
aS'ELSA LANCOM DSL I-10 Office router or Wireless L-11'
p628
aS'ELSA LANCOM DSL/10 Office DSL router'
p629
aS'ELSA LANCOM DSL/10 office router'
p630
aS'ELSA LANCOM DSL/10 office router'
p631
aS'ELSA LANCOM DSL/I-1611 Office router'
p632
asS'Canon | embedded || printer'
p633
(lp634
S'Canon GP 160 PF printer'
p635
aS'Canon iR 2200 printer'
p636
aS'Canon iR C3200 printer'
p637
aS'Canon iR2270 printer'
p638
aS'Canon iR6000 printer'
p639
aS'Canon iR7200 Printer'
p640
aS'Canon photocopier/fax/scanner/printer GP30F'
p641
aS'Canon Pixmar IP4000R printer'
p642
asS'IPCop | Linux | 2.2.X | firewall'
p643
(lp644
S'IPCop 1.20 Linux 2.2.2X-based firewall'
p645
asS'DEC | embedded || router'
p646
(lp647
S'DECNIS 600 V4.1.3B multiprotocol bridge/router'
p648
asS'Nortel | embedded || switch'
p649
(lp650
S'Nortel Networks BayStack switch'
p651
aS'Nortel Networks Passport 1100 switch'
p652
aS'Nortel Networks Passport 8600 routing switch sw 3.3.0.0'
p653
asS'Rio | embedded || media device'
p654
(lp655
S'Rio Karma mp3 player'
p656
asS'Sharp | embedded || printer'
p657
(lp658
S'Sharp DIGITAL Imager (copier) AR-507'
p659
aS'Sharp Network Printer AR-337'
p660
asS'IBM | embedded || hub'
p661
(lp662
S'Cisco 760 Series ISDN router (non IOS) or IBM Stackable Hub'
p663
aS'IBM 8222 hub'
p664
aS'IBM 8239 Token-Ring Stackable Hub'
p665
asS'IPRoute | DOS || software router'
p666
(lp667
S'IPRoute (DOS based software router)'
p668
asS'Redback | AOS || router'
p669
(lp670
S'Redback SMS 1800 router'
p671
aS'Redback SMS 1800/10000 router or Thomson TMC 390 cable modem'
p672
aS'Redback SMS500 Redback Networks router AOS Release 5.0.3.8 - 5.0.4.0'
p673
asS'ZyXel | ZyNOS || firewall'
p674
(lp675
S'ZyXel ZyWALL 1 firewall'
p676
aS'ZyXel Zywall 10W firewall'
p677
aS'ZyXel ZyWALL 50 (ZyNOS 3.52)'
p678
asS'3Com | embedded || router'
p679
(lp680
S'3Com AccessBuilder Remote Office 500 router'
p681
aS'3Com NetBuilder & NetBuilder II OS v 9.3'
p682
aS'3Com Netbuilder & Netbuilder II router OS v8.1'
p683
aS'3Com Netbuilder II Router Ver 11.4.0.51'
p684
aS'3Com Netbuilder Remote Office 222 (ESPL-310), Version 10.1 (SW/NBRO-AB,10.1)'
p685
aS'3Com Netbuilder Remote Office 222 router'
p686
aS'3Com NetBuilder-II, OS version SW/NB2M-BR-5.1.0.27'
p687
aS'3Com OfficeConnect Netbuilder router'
p688
aS'3com OfficeConnect Remote 812 ADSL Router'
p689
aS'Shiva AccessPort Bridge/Router Software V 2.1.0 or 3Com HiPer Access Router Card hardware V1.0.0 software V4.1.59'
p690
asS'Zebra | embedded || printer'
p691
(lp692
S'Zebra Technologies TLP2844-Z printer'
p693
asS'DEC | OpenVMS | 6.X | general purpose'
p694
(lp695
S'DEC OpenVMS 6.1'
p696
aS'DEC OpenVMS 6.2'
p697
aS'DEC OpenVMS 6.2'
p698
aS'DEC OpenVMS 6.2'
p699
aS'DEC OpenVMS 6.2/Alpha'
p700
aS'DEC OpenVMS Alpha 6.2 running DIGITAL TCP/IP Services (UCX) v4.0'
p701
aS'DEC OpenVMS AXP 6.2 running Attachmate Pathway 3.1 TCP stack'
p702
aS'DEC OpenVMS V6.1 on VAX 4000-105A'
p703
asS'ARRIS | embedded || broadband router'
p704
(lp705
S'Apple Airport Extreme Base Station (WAP) or ARRIS Cadant C3 CMTS Cable Modem'
p706
asS'Compaq | Tru64 UNIX | 4.X | general purpose'
p707
(lp708
S'Compaq Tru64 UNIX (formerly DIGITAL UNIX) 4.0e'
p709
aS'Compaq Tru64 UNIX 4.0e'
p710
aS'Tru64 UNIX 4.0f - 4.0g'
p711
asS'ZyXel | ZyNOS || broadband router'
p712
(lp713
S'Hardware: ZyXel Prestige Broadband router'
p714
aS'ZyXel 944S Prestige router'
p715
aS'ZyXel P480 ISDN router running ZyNOS v2.42(O.00)'
p716
aS'ZyXel Prestige 642R-11 ASDL router running ZyNOS'
p717
aS'ZyXel Prestige 643 router'
p718
aS'ZyXel Prestige 700/Netgear MR314 Broadband router'
p719
aS'ZyXel Prestige 791R'
p720
asS'Palm | PalmOS | 3.X | PDA'
p721
(lp722
S'PalmOS 3.5.1 on m100 PDA'
p723
asS'Efficient Networks | embedded || broadband router'
p724
(lp725
S'Efficient Networks/SpeedStream DSL router'
p726
asS'Shiva | embedded || terminal server'
p727
(lp728
S'Shiva LanRover/8E Version 3.5'
p729
asS'Data General | AOS/VS || general purpose'
p730
(lp731
S'AOS/VS on a Data General mainframe'
p732
aS'AOS/VS or VSII'
p733
asS'Actiontec | embedded || broadband router'
p734
(lp735
S'Actiontec 1520 DSL gateway firmware 8.2.0.16'
p736
asS'D-Link | embedded || print server'
p737
(lp738
S'D-Link Print Server'
p739
asS'AXIS | Linux || webcam'
p740
(lp741
S'AXIS 2100 Network Camera running Linux/CRIS v2.32'
p742
asS'Cisco | IOS | 11.X | terminal server'
p743
(lp744
S'Cisco 2501/5260/5300 terminal server IOS 11.3.6(T1)'
p745
asS'Liebert | embedded || specialized'
p746
(lp747
S'Liebert Intellislot SNMP/Web Card (power devices, air conditioning, etc.)'
p748
asS'BSDI | BSD/OS | 4.X | general purpose'
p749
(lp750
S'BSDI BSD/OS 4.0-4.0.1'
p751
aS'BSDI BSD/OS 4.0.1'
p752
aS'BSDI BSD/OS 4.2'
p753
asS'Parks | embedded || broadband router'
p754
(lp755
S'Parks Altavia 671R router'
p756
asS'Toshiba | embedded || broadband router'
p757
(lp758
S'Toshiba DOCSIS Cable Modem'
p759
aS'Toshiba TR650 ISDN Router'
p760
asS'IBM | embedded || printer'
p761
(lp762
S'IBM Infoprint 12 Net-Printer'
p763
asS'SCO | UnixWare || general purpose'
p764
(lp765
S'SCO UnixWare 2.01'
p766
aS'SCO UnixWare 2.1'
p767
aS'SCO UnixWare 2.1'
p768
aS'SCO UnixWare 2.1.2'
p769
aS'SCO UnixWare 7.0.0 or OpenServer 5.0.4-5.0.6'
p770
aS'SCO UnixWare 7.1.0 - 7.1.1 (x86)'
p771
aS'SCO UnixWare 7.1.0 x86'
p772
aS'SCO UnixWare 7.1.1'
p773
asS'Xylogics | LynxOS || terminal server'
p774
(lp775
S'Xylogics Remote Annex 4000 terminal server running LynxOS realtime OS'
p776
asS'IBM | OS/400 | V4 | general purpose'
p777
(lp778
S'IBM AS/400 V3 and V4'
p779
aS'IBM AS/400 running OS/400 R4.4'
p780
aS'IBM OS/400 V4 r4-5'
p781
aS'IBM OS/400 V4R2M0'
p782
aS'IBM OS/400 V4R5'
p783
aS'IBM OS/400 V4R5M0'
p784
asS'HP | Netstation || X terminal'
p785
(lp786
S'HP Entria X station (running Netstation 7.x)'
p787
asS'Ascend | TAOS || terminal server'
p788
(lp789
S'Ascend / Lucent MAX TNT terminal server'
p790
aS'Ascend Mac 6000 Terminal access server'
p791
aS'Ascend Max terminal server firmware 7.0.4'
p792
aS'Ascend TNT OS +5.0Ap48+'
p793
aS'Ascend/Lucent Max (HP,4000-6000) version 6.1.3 - 7.0.2+'
p794
asS'Enterasys | embedded || switch'
p795
(lp796
S'Enterasys/Cabletron switch running Enterasys E8.2.0.0 - E9.0.0.0'
p797
aS'SonicWall SOHO firewall, Enterasys Matrix E1, or Accelerated Networks VoDSL, or Cisco 350 Access Point'
p798
asS'Panasonic | embedded || printer'
p799
(lp800
S'Panasonic DP-3520 multi-function printer'
p801
aS'Panasonic panafax DX2000 SuperG3 fax machine'
p802
asS'Enterasys | embedded || firewall'
p803
(lp804
S'Enterasys XSR-1805 Security Route'
p805
asS'HP | embedded || remote management'
p806
(lp807
S'HP Integrated Lights Out remote configuration Board'
p808
asS'Microplex | embedded || print server'
p809
(lp810
S'IBM 6400 printer or Microplex Pocket Print Server'
p811
aS'Microplex Print Server'
p812
asS'Microsoft | Windows | 2003/.NET | general purpose'
p813
(lp814
S'Microsoft Windows 2003 Server'
p815
aS'Microsoft Windows 2003 Server'
p816
aS'Microsoft Windows 2003 Server'
p817
aS'Microsoft Windows 2003 Server'
p818
aS'Microsoft Windows 2003 Server'
p819
aS'Microsoft Windows 2003 Server Enterprise Edition'
p820
aS'Microsoft Windows 2003 Server Enterprise Edition'
p821
aS'Microsoft Windows 2003 Server SP1'
p822
aS'Microsoft Windows 2003 Server SP1'
p823
aS'Microsoft Windows 2003 Server Standard Edition'
p824
aS'Microsoft Windows 2003 Server Standard Edition'
p825
aS'Microsoft Windows 2003 Server Standard Edition'
p826
aS'Microsoft Windows 2003 Server Standart Edition SP1'
p827
aS'Microsoft Windows 2003 standard edition'
p828
aS'Microsoft Windows Server 2003'
p829
aS'Microsoft Windows Server 2003 Enterprise Edition'
p830
asS'Linksys | embedded || print server'
p831
(lp832
S'Linksys EtherFast Print Server'
p833
aS'Linksys EtherFast Print Server'
p834
aS'Linksys PSUS4 USB Print Server and switch'
p835
aS'Linksys WPS54GU2 Wireless Print Server'
p836
asS'Digital Link | embedded || CSUDSU'
p837
(lp838
S'Digital Link DL2001 CSU/DSU Management Access Processor'
p839
asS'D-Link | embedded || telecom-misc'
p840
(lp841
S'D-Link VoIP Gateway GS-104SH'
p842
asS'Kronos | embedded || specialized'
p843
(lp844
S'Kronos Time clock'
p845
asS'IBM | OS/390 | V2 | general purpose'
p846
(lp847
S'IBM OS/390 V2R10'
p848
asS'Nokia | Symbian || phone'
p849
(lp850
S'Symbian OS 6.1 on Nokia N-Gage v 4.03 phone'
p851
asS'Bay Networks | embedded || terminal server'
p852
(lp853
S'VxWorks 5.3.x bases system (usually an Ethernet hub or switch such as HP ProCurve) or Bay Networks MicroAnnex XL terminal server'
p854
asS'Maxim-IC | TiniOS || general purpose'
p855
(lp856
S'Maxim-IC TiniOS DS80c400'
p857
aS'Maxim/Dallas TINI embedded Java v1.02b'
p858
aS'Maxim/Dallas TINI embedded Java v1.02d'
p859
asS'NetScreen | ScreenOS || firewall'
p860
(lp861
S'Netscreen 5GT Plus running ScreenOS 4.0.0r5.3'
p862
aS'NetScreen NS-204 Firewall'
p863
aS'NetScreen-100'
p864
asS'MultiTech | embedded || terminal server'
p865
(lp866
S'MultiTech CommPlete (modem server) RAScard'
p867
aS'MultiTech CommPlete Controller (terminal server)'
p868
asS'Netgear | embedded || switch'
p869
(lp870
S'Netgear GS724T Gigabit Smart Switch'
p871
asS'Sun | SunOS || general purpose'
p872
(lp873
S'Sun RSC (Remote System Control card) v1.14 (in Solaris 2.7)'
p874
aS'Sun SunOS 4.0.3'
p875
aS'Sun SunOS 4.1.3_U1 + ISI RFC1323 mods from ISI'
p876
asS'RiverStone | embedded || router'
p877
(lp878
S'RiverStone RS3000 router'
p879
asS'Cisco | embedded || VoIP phone'
p880
(lp881
S'Cisco 7960 SIP Phone running OS 4.2'
p882
aS'Cisco IP phone (POS3-04-3-00, PC030301)'
p883
aS'Cisco IP Phone 7910 or 7940 Firmware 3.1'
p884
aS'Cisco IP Phone 7940'
p885
aS'Cisco IP Phone 7960'
p886
aS'Cisco IP Phone 7970G'
p887
asS'KIRK | embedded || VoIP gateway'
p888
(lp889
S'KIRK Wireless Server 600'
p890
asS'Pace | embedded || media device'
p891
(lp892
S'Pace digital cable TV receiver'
p893
asS'Alteon | embedded || load balancer'
p894
(lp895
S'Alteon Networks ACEswitch 180e Software Version 8.0.62.7'
p896
aS'Nortel/Alteon ACE Director 3 Version 6.0.42-B'
p897
asS'NCD | embedded || X terminal'
p898
(lp899
S'NCD X server (NCD16 server 2.3.0 03/12/91)'
p900
asS'Xylogics | embedded || terminal server'
p901
(lp902
S'Xylogics Micro Annex ELS terminal server x7.1.8'
p903
asS'Lantronix | Punix || print server'
p904
(lp905
S'Lantronix EPS1 Print Server version V3.5/1(970325)'
p906
aS'Lantronix EPS1 Printer Server'
p907
aS'Lantronix EPS2 Print Server Version V3.5/2(970721)'
p908
asS'SCO | OpenServer || general purpose'
p909
(lp910
S'SCO OpenServer 5.0.5'
p911
aS'SCO OpenServer 5.0.7'
p912
aS'SCO OpenServer Release 5'
p913
aS'SCO OpenServer Release 5'
p914
asS'Intel | embedded || router'
p915
(lp916
S'Intel ER8100ST Express Router 8100'
p917
aS'Intel ER9100 Express Router 9100'
p918
asS'Edimax | embedded || broadband router'
p919
(lp920
S'Edimax BR-6004 Broadband router'
p921
asS'Sun | Solaris | 8 | general purpose'
p922
(lp923
S'Sun Solaris 2.6 - 8 (SPARC)'
p924
aS'Sun Solaris 8'
p925
aS'Sun Solaris 8'
p926
aS'Sun Solaris 8'
p927
aS'Sun Solaris 8'
p928
aS'Sun Solaris 8'
p929
aS'Sun Solaris 8'
p930
aS'Sun Trusted Solaris 8'
p931
asS'Linux | Linux | 2.1.X | general purpose'
p932
(lp933
S'Linux 2.1.24 PowerPC'
p934
aS'Linux 2.1.76'
p935
aS'Linux 2.1.88'
p936
aS'Linux 2.1.91 - 2.1.103'
p937
asS'FreeBSD | FreeBSD | 6.X | general purpose'
p938
(lp939
S'FreeBSD 5.2.1-RELEASE or 6.0-CURRENT'
p940
asS'Apple | Mac OS X | 10.3.X | general purpose'
p941
(lp942
S'Apple Mac OS X 10.3.3 (Panther)'
p943
aS'Apple Mac OS X 10.3.5 or 10.3.7'
p944
aS'Apple Mac OS X 10.3.6 or 10.3.7'
p945
aS'Apple Mac OS X 10.3.9'
p946
aS'Apple Mac OS X 10.4.1 (Tiger)'
p947
asS'NeXT | Mach || general purpose'
p948
(lp949
S'NeXT Mach'
p950
asS'Foundry | embedded || load balancer'
p951
(lp952
S'Foundry FastIron Edge Switch (load balancer) 2402'
p953
aS'Foundry Load Balancer OS Ver 7.2.X - 7.3.X'
p954
aS'Foundry Networks Biglron 8000 load balancer'
p955
asS'SAR | embedded || broadband router'
p956
(lp957
S'GNet BB0040 or SAR 703 DSL modem + router'
p958
asS'Netgear | embedded || broadband router'
p959
(lp960
S'HP Advancestack Etherswitch 224T or 210 or Netgear RP114 DSL-Router w/Switch'
p961
aS'Netgear DG824M WAP'
p962
aS'Netgear FVL238 vpn/firewall/router'
p963
aS'Netgear FVL328 vpn/firewall/router'
p964
aS'Netgear WGR614 Wireless router'
p965
aS'Netgear Wireless router or Netgear FM114P/REPOTEC IP515H Router & Print Server'
p966
asS'Turtle Beach | embedded || media device'
p967
(lp968
S'Turtle Beach AudioTron network MP3 player'
p969
aS'Turtle Beach AudioTron network MP3 player'
p970
asS'Level One | embedded || broadband router'
p971
(lp972
S'Fingerprint LevelOne WBR-3406TX Wireless Broadband router'
p973
aS'LevelOne WBR-3403TX Wireless Broadband router'
p974
asS'IBM | OS/390 | V5 | general purpose'
p975
(lp976
S'IBM OS/390 V5R0M0'
p977
asS'Quanterra | OS/9 || specialized'
p978
(lp979
S'Quanterra seismic data acquisition system running OS/9 V2.4 on 68K'
p980
asS'Nokia | embedded || broadband router'
p981
(lp982
S'Nokia M1122 DSL Router'
p983
asS'D-Link | embedded || hub'
p984
(lp985
S'D-Link Corp. DE-1800 Stackable Hub SNMP/Telnet Agent Software version 2.04B3 boot PROM 2.21'
p986
asS'Cabletron | embedded || router'
p987
(lp988
S'Cabletron Smart Switch Router 8600'
p989
aS'Cabletron Systems SSR 8000 smart switch router System Software, Version 3.1.B.16'
p990
asS'Xylan | embedded || switch'
p991
(lp992
S'IBM LAN RouteSwitch/Xylan OmniSwitch Version 3.2.5/NeXT'
p993
asS'Exabyte | embedded || storage-misc'
p994
(lp995
S'Exabyte X80 tape backup robot'
p996
asS'3Com | embedded || switch'
p997
(lp998
S'3Com / USR TotalSwitch Firmware: 02.02.00R'
p999
aS'3Com Access Builder 4000 Switch'
p1000
aS'3Com LANplex 6004 switch'
p1001
aS'3Com SuperStack II switch (OS v 2.0)'
p1002
aS'3Com SuperStack II switch SW/NBSI-CF,11.1.0.00S38'
p1003
aS'Cisco VPN 3000 or 3Com 4924 GigE Switch'
p1004
asS'IQinVision | embedded || webcam'
p1005
(lp1006
S'IQinVison IQeye3 webcam'
p1007
asS'DEC | VMS || general purpose'
p1008
(lp1009
S'DEC OpenVMS 7.3-1 w/Multinet 4.4'
p1010
aS'DEC VAX 7000-610 or 4200/SPX OR 6000-430'
p1011
aS'DEC VAX/VMS 5.3 on a MicroVAX II'
p1012
aS'DEC VAX/VMS 5.5-2'
p1013
aS'DEC VAX/VMS v5.5, CMU-TEK TCP/IP stack'
p1014
aS'DEC VMS MultiNet V4.1(16)'
p1015
asS'Isolation | embedded || encryption accelerator'
p1016
(lp1017
S'Isolation Systems Infocrypt Enterprise'
p1018
asS'HP | embedded || print server'
p1019
(lp1020
S'HP printer w/JetDirect card'
p1021
aS'HP Deskjet 6127 printer or InkJet 1200 printer server'
p1022
aS'HP LaserJet printer/print server'
p1023
asS'Sony | Linux || game console'
p1024
(lp1025
S'PS2 Linux 1.0 on Sony PS2 game console'
p1026
asS'IBM | OS/400 | V3 | general purpose'
p1027
(lp1028
S'IBM OS/400 V3'
p1029
asS'IBM | embedded || X terminal'
p1030
(lp1031
S'AGE Logic, Inc. IBM XStation'
p1032
asS'Xyplex | embedded || terminal server'
p1033
(lp1034
S'Xyplex Network 9000 terminal server'
p1035
aS'Xyplex Terminal Server CSERV-20 software v6.0.4'
p1036
aS'Xyplex Terminal Server v6.0.2S5'
p1037
asS'Linux | Linux | 2.0.X | general purpose'
p1038
(lp1039
S'Linux 2.0.0'
p1040
aS'Linux 2.0.27 - 2.0.30'
p1041
aS'Linux 2.0.32-34'
p1042
aS'Linux 2.0.32-34'
p1043
aS'Linux 2.0.34-38'
p1044
aS'Linux 2.0.35 (S.u.S.E. Linux 5.3 (i386)'
p1045
aS'Linux 2.0.39'
p1046
asS'xMach | xMach || general purpose'
p1047
(lp1048
S'xMach free distributed OS version 0.1 current'
p1049
asS'MultiTech | embedded || VoIP gateway'
p1050
(lp1051
S'MultiTech MultiVoip 2410'
p1052
asS'Convex | SPP-UX || general purpose'
p1053
(lp1054
S'Convex SPP-UX 5.2.1'
p1055
aS'SPP-UX 5.x on a Convex SPP-1600'
p1056
asS'Apollo | Domain/OS || general purpose'
p1057
(lp1058
S'Apollo Domain/OS SR10.3.5'
p1059
aS'Apollo Domain/OS SR10.4'
p1060
asS'Soyo | embedded || VoIP phone'
p1061
(lp1062
S'Soyo G668 VoIP phone'
p1063
asS'Cisco | vxworks || WAP'
p1064
(lp1065
S'Cisco Aironet WAP, Brocade Fibre Switch, or Sun Remote System Console'
p1066
asS'FreeBSD | FreeBSD | 2.X | general purpose'
p1067
(lp1068
S'FreeBSD 2.1.0 - 2.1.5'
p1069
aS'FreeBSD 2.2.1-STABLE'
p1070
asS'Intel | embedded || print server'
p1071
(lp1072
S'Intel InBusiness Print Station'
p1073
aS'Intel NetportExpress 10 3-port Print Server'
p1074
aS'Intel NetportExpress 10/100 3-port Print Server'
p1075
aS'Intel NetportExpress PRO Print Server V04.33a'
p1076
aS'Intel NetportExpress XL Print Server'
p1077
asS'Gauntlet | Solaris | 2.5.X | firewall'
p1078
(lp1079
S'Gauntlet 4.0a firewall on Solaris 2.5.1'
p1080
asS'Genius | embedded || print server'
p1081
(lp1082
S'Genius Print Server'
p1083
asS'Compex | embedded || switch'
p1084
(lp1085
S'Compex CGX3224 Switch'
p1086
asS'Alcatel | embedded || broadband router'
p1087
(lp1088
S'Alcatel 1000 ADSL (modem)'
p1089
aS'Alcatel 1000 DSL Router'
p1090
aS'Alcatel Speed Touch *DSL modem/router'
p1091
aS'Alcatel Speed Touch 510 *DSL modem/router'
p1092
aS'Alcatel Speed Touch Pro aDSL modem'
p1093
asS'Tektronix | embedded || printer'
p1094
(lp1095
S'Tektronix Phaser 350 printer'
p1096
aS'Tektronix Phaser 560 printer'
p1097
aS'Tektronix Phaser printer'
p1098
aS'Tektronix Phaser printer'
p1099
aS'Tektronix/Xerox Phaser printer'
p1100
asS'ZyXel | ZyNOS || switch'
p1101
(lp1102
S'ZyXel switch ES-3024 ZyNOS V3.50'
p1103
asS'Proxim | embedded || bridge'
p1104
(lp1105
S'Proxim Stratum MP Wireless bridge'
p1106
asS'Cyclades | Cyras || terminal server'
p1107
(lp1108
S'Cyclades PathRAS Remote Access Server v1.1.7'
p1109
asS'Hitachi | HI-UX || general purpose'
p1110
(lp1111
S'Hitachi HI-UX/MPP'
p1112
aS'Xylan OmniSwitch 5x/9x Ethernet switch, Xylogics Annex-III Comm server R10.0, or Hitachi HI-UX/WE2'
p1113
asS'Juniper | JUNOS || router'
p1114
(lp1115
S'Juniper Networks JUNOS 5.3 on an Olive router'
p1116
aS'Juniper Networks JUNOS 5.6R1.3 routing software on x86 box'
p1117
aS'Juniper Networks router JUNOS 5.5R1.2'
p1118
aS'Juniper Networks router M10i running JUNOS 7.2R1.7'
p1119
aS'Juniper Router running JUNOS'
p1120
asS'Cisco | embedded || web proxy'
p1121
(lp1122
S'Cisco Cache Engine Web Proxy'
p1123
asS'Magna | embedded || router'
p1124
(lp1125
S'Magna SG10 intranet router'
p1126
asS'Arlan | embedded || bridge'
p1127
(lp1128
S'ARLAN BR2000E V5.0E Wireless Radio Bridge'
p1129
asS'Minix | Minix || general purpose'
p1130
(lp1131
S'Minix 32-bit/Intel 2.0.0'
p1132
aS'Minix 32-bit/Intel 2.0.3'
p1133
aS'Minix v2.0.2 32bits'
p1134
asS'Bosch | embedded || webcam'
p1135
(lp1136
S"Bosch Security Systems's Divar Digital Video Recorder Version 2.00"
p1137
asS'Be | BeOS | 5.X | general purpose'
p1138
(lp1139
S'BeOS 5.0.4 (BeOS 5 Pro + BONE 7a)'
p1140
aS'BeOS 5.03 x86 with the BONE network stack'
p1141
aS'BeOS 5.1d0/DANO on x86'
p1142
aS'BeOS R5.03 Personal Edition'
p1143
asS'IBM | AIX | 3.X | general purpose'
p1144
(lp1145
S'IBM AIX 3.2'
p1146
aS'IBM AIX 3.2'
p1147
aS'IBM AIX 3.2 running on RS/6000'
p1148
aS'IBM AIX 3.2.3 running on RS6000 model 560'
p1149
aS'IBM AIX 3.2.5 (Bull HardWare)'
p1150
aS'IBM AIX v3.2.5 - 4'
p1151
asS'NeXT | NeXTStep || general purpose'
p1152
(lp1153
S'NeXTStep/OpenStep 4.2/Intel'
p1154
aS'OpenStep 4.0-4.2 or NeXTStep 1.0-3.3 (Intel)'
p1155
aS'OpenStep 4.1/NeXTStep 3.3'
p1156
asS'DEC | DIGITAL UNIX | 3.X | general purpose'
p1157
(lp1158
S'DIGITAL UNIX OSF1 V 3.0,3.2,3.2C'
p1159
asS'Aethra | embedded || webcam'
p1160
(lp1161
S'Aethra Vega Conference System'
p1162
asS'Stratus | VOS || general purpose'
p1163
(lp1164
S'Stratus VOS Release 14.3.1ae'
p1165
asS'Microsoft | Windows | NT/2K/XP | general purpose'
p1166
(lp1167
S'Microsoft Windows 2003 Server Enterprise Edition or XP Pro SP2'
p1168
aS'Microsoft Windows 2003 Server or XP SP2'
p1169
aS'Microsoft Windows NT 3.51 SP5, NT 4.0 or 95/98/98SE'
p1170
aS'Microsoft Windows 2000 Advanced Server SP2'
p1171
aS'Microsoft Windows 2000 Advanced Server SP3'
p1172
aS'Microsoft Windows 2000 Advanced Server SP3'
p1173
aS'Microsoft Windows 2000 Advanced Server SP4'
p1174
aS'Microsoft Windows 2000 Advanced Server SP4'
p1175
aS'Microsoft Windows 2000 Advanced Server SP4'
p1176
aS'Microsoft Windows 2000 Professional'
p1177
aS'Microsoft Windows 2000 Professional (Russian) SP2'
p1178
aS'Microsoft Windows 2000 Professional RC1 or Windows 2000 Advanced Server Beta3'
p1179
aS'Microsoft Windows 2000 Professional SP2'
p1180
aS'Microsoft Windows 2000 Professional SP3'
p1181
aS'Microsoft Windows 2000 Professional SP4'
p1182
aS'Microsoft Windows 2000 Server SP1'
p1183
aS'Microsoft Windows 2000 Server SP2'
p1184
aS'Microsoft Windows 2000 Server SP3'
p1185
aS'Microsoft Windows 2000 Server SP3'
p1186
aS'Microsoft Windows 2000 Server SP3'
p1187
aS'Microsoft Windows 2000 Server SP3 or Windows XP Pro SP1'
p1188
aS'Microsoft Windows 2000 Server SP4'
p1189
aS'Microsoft Windows 2000 Server SP4'
p1190
aS'Microsoft Windows 2000 Server SP4'
p1191
aS'Microsoft Windows 2000 Server SP4'
p1192
aS'Microsoft Windows 2000 Server SP4'
p1193
aS'Microsoft Windows 2000 Server SP4 or 2003 Server Standard Edition'
p1194
aS'Microsoft Windows 2000 Server SP4 or XP SP1'
p1195
aS'Microsoft Windows 2000 SP1'
p1196
aS'Microsoft Windows 2000 SP1'
p1197
aS'Microsoft Windows 2000 SP2'
p1198
aS'Microsoft Windows 2000 SP2'
p1199
aS'Microsoft Windows 2000 SP2'
p1200
aS'Microsoft Windows 2000 SP2'
p1201
aS'Microsoft Windows 2000 SP2 or XP or XP SP1'
p1202
aS'Microsoft Windows 2000 SP2 with Hotfix (Pre-SP3)'
p1203
aS'Microsoft Windows 2000 SP3'
p1204
aS'Microsoft Windows 2000 SP3'
p1205
aS'Microsoft Windows 2000 SP3'
p1206
aS'Microsoft Windows 2000 SP3'
p1207
aS'Microsoft Windows 2000 SP3'
p1208
aS'Microsoft Windows 2000 SP3'
p1209
aS'Microsoft Windows 2000 SP3'
p1210
aS'Microsoft Windows 2000 SP3'
p1211
aS'Microsoft Windows 2000 SP3'
p1212
aS'Microsoft Windows 2000 SP3'
p1213
aS'Microsoft Windows 2000 SP4'
p1214
aS'Microsoft Windows 2000 SP4'
p1215
aS'Microsoft Windows 2000 SP4'
p1216
aS'Microsoft Windows 2000 SP4'
p1217
aS'Microsoft Windows 2000 SP4'
p1218
aS'Microsoft Windows 2000 SP4'
p1219
aS'Microsoft Windows 2000 SP4'
p1220
aS'Microsoft Windows 2000 SP4'
p1221
aS'Microsoft Windows 2000 SP4'
p1222
aS'Microsoft Windows 2000 SP4 or Windows XP SP1'
p1223
aS'Microsoft Windows NT 3.10 (Build 528)'
p1224
aS'Microsoft Windows NT 4.0 Server SP5-SP6'
p1225
aS'Microsoft Windows NT 4.0 SP 6a + hotfixes'
p1226
aS'Microsoft Windows NT 4.0 SP3'
p1227
aS'Microsoft Windows NT 4.0 SP3'
p1228
aS'Microsoft Windows NT 4.0 SP5'
p1229
aS'Microsoft Windows NT 4.0 SP5-SP6'
p1230
aS'Microsoft Windows NT 4.0 SP6'
p1231
aS'Microsoft Windows NT 4.0 SP6a'
p1232
aS'Microsoft Windows NT 4.0 SP6a'
p1233
aS'Microsoft Windows NT 4.0 SP6a with Kerio WinRoute Pro 4.27 Firewall'
p1234
aS'Microsoft Windows NT 4.0 Terminal Server Edition'
p1235
aS'Microsoft Windows NT 4.0 Workstation SP6a'
p1236
aS'Microsoft Windows NT 4.0 Workstation SP6a'
p1237
aS'Microsoft Windows NT Version 4 (Build 1381) Service Pack 6a'
p1238
aS'Microsoft Windows XP'
p1239
aS'Microsoft Windows XP Home Edition'
p1240
aS'Microsoft Windows XP Home Edition (English) SP2'
p1241
aS'Microsoft Windows XP Home Edition (German) SP1'
p1242
aS'Microsoft Windows XP Home Edition (German) SP2'
p1243
aS'Microsoft Windows XP Home Edition SP1'
p1244
aS'Microsoft Windows XP Home Edition SP1 or SP2'
p1245
aS'Microsoft Windows XP Pro'
p1246
aS'Microsoft Windows XP Pro (German)'
p1247
aS'Microsoft Windows XP Pro (German) SP1'
p1248
aS'Microsoft Windows XP Pro (German) SP1'
p1249
aS'Microsoft Windows XP Pro (Italian)'
p1250
aS'Microsoft Windows XP Pro (Spanish) SP2'
p1251
aS'Microsoft Windows XP Pro or Windows 2000 Professional SP2+'
p1252
aS'Microsoft Windows XP Pro RC1+ through final release'
p1253
aS'Microsoft Windows XP Pro SP1'
p1254
aS'Microsoft Windows XP Pro SP1'
p1255
aS'Microsoft Windows XP Pro SP1'
p1256
aS'Microsoft Windows XP Pro SP1'
p1257
aS'Microsoft Windows XP Pro SP1'
p1258
aS'Microsoft Windows XP Pro SP1'
p1259
aS'Microsoft Windows XP Pro SP1'
p1260
aS'Microsoft Windows XP Pro SP1'
p1261
aS'Microsoft Windows XP Pro SP1'
p1262
aS'Microsoft Windows XP Pro SP1'
p1263
aS'Microsoft Windows XP Pro SP1'
p1264
aS'Microsoft Windows XP Pro SP1'
p1265
aS'Microsoft Windows XP Pro SP1'
p1266
aS'Microsoft Windows XP Pro SP1'
p1267
aS'Microsoft Windows XP Pro SP1 or Windows 2000 Advanced Server SP3'
p1268
aS'Microsoft Windows XP Pro SP2'
p1269
aS'Microsoft Windows XP Pro SP2'
p1270
aS'Microsoft Windows XP Pro SP2'
p1271
aS'Microsoft Windows XP Pro SP2'
p1272
aS'Microsoft Windows XP Pro SP2'
p1273
aS'Microsoft Windows XP Pro SP2'
p1274
aS'Microsoft Windows XP Pro SP2'
p1275
aS'Microsoft Windows XP Pro SP2 (firewall disabled)'
p1276
aS'Microsoft Windows XP Pro Version 5.1 Build 2600'
p1277
aS'Microsoft Windows XP SP1'
p1278
aS'Microsoft Windows XP SP1'
p1279
aS'Microsoft Windows XP SP1'
p1280
aS'Microsoft Windows XP SP1 or Windows 2000 SP3'
p1281
aS'Microsoft Windows XP SP1 or Windows 2000 SP4'
p1282
aS'Microsoft Windows XP SP2'
p1283
aS'Microsoft Windows XP SP2'
p1284
aS'Microsoft Windows XP SP2'
p1285
aS'Microsoft Windows XP SP2'
p1286
aS'Microsoft Windows XP SP2'
p1287
aS'Microsoft Windows XP SP2 or 2003 Server'
p1288
asS'Tandberg | embedded || X terminal'
p1289
(lp1290
S'Tandberg X-terminal'
p1291
asS'Polycom | embedded || webcam'
p1292
(lp1293
S'Polycom Video Conference node'
p1294
aS'Polycom ViewStation'
p1295
aS'Polycom ViewStation 512K videoconferencing system'
p1296
asS'Alpha Micro | AMOS || general purpose'
p1297
(lp1298
S'Amos 2.3A'
p1299
asS'Scientific-Atlanta | embedded || media device'
p1300
(lp1301
S'Scientific Atlanta Explorer 4200 Digital Cable Box'
p1302
aS'Scientific Atlanta PowerVu Program Receiver Model D9850/9010'
p1303
asS'Handspring | PalmOS | 5.X | PDA'
p1304
(lp1305
S'PalmOS 5.2.1 on Handspring Treo'
p1306
asS'Compaq | Tru64 UNIX | 5.X | general purpose'
p1307
(lp1308
S'Compaq Tru64 UNIX V5.1 (Rev. 732)'
p1309
aS'Compaq Tru64 UNIX V5.1 (Rev. 732)'
p1310
aS'Compaq Tru64 UNIX V5.1A (Rev. 1885)'
p1311
aS'Compaq Tru64 UNIX V5.1A (Rev. 1885)'
p1312
aS'Compaq Tru64 UNIX V5.1B'
p1313
aS'HP Tru64 UNIX v5.1B'
p1314
aS'OSF1 5.0 Rev. 910 (AKA Compaq/DIGITAL Tru64 UNIX)'
p1315
asS'Proxim | embedded || WAP'
p1316
(lp1317
S'Proxim 8571 802.11a Access Point'
p1318
asS'HP | embedded || load balancer'
p1319
(lp1320
S'HP Procurve Routing Switch 9304M'
p1321
aS'HP Procurve Switch 2600 series or 5304XL'
p1322
asS'Raptor | embedded || firewall'
p1323
(lp1324
S'Raptor firewall 5.03 on NT 4'
p1325
asS'Corega | embedded || broadband router'
p1326
(lp1327
S'Corega BAR SW-4P Broadband Access Router'
p1328
asS'Digital Networks | embedded || switch'
p1329
(lp1330
S'Digital Networks VNswitch 900'
p1331
asS'SonicWall | embedded || firewall'
p1332
(lp1333
S'SonicWall Pro 200 firewall'
p1334
asS'WTI | embedded || power-device'
p1335
(lp1336
S'WTI Internet Power Switch 1.01'
p1337
aS'WTI Network Power Switch v3.02'
p1338
asS'Cray | UNICOS | 10.X | general purpose'
p1339
(lp1340
S'UNICOS 10.0.0 on Cray 90'
p1341
asS'PolyCom | embedded || webcam'
p1342
(lp1343
S'PolyCom ViewStation video-conferencing system (firmware v7.2)'
p1344
asS'Phillips | embedded || media device'
p1345
(lp1346
S'Phillips ReplayTV 5000 DVR'
p1347
asS'Telocity | embedded || broadband router'
p1348
(lp1349
S'Telocity (DirectTVDSL) Gateway x2 Model'
p1350
asS'MiraPoint | embedded || general purpose'
p1351
(lp1352
S'Mirapoint messaging server M1000 (OS v 1.0.0)'
p1353
aS'MiraPoint messaging server v3.1'
p1354
asS'Racal | embedded || encryption accelerator'
p1355
(lp1356
S'Racal 7100 Host Security Module 1.05 / 5.05'
p1357
asS'Rockwell | embedded || telecom-misc'
p1358
(lp1359
S'Rockwell Spectrum 100 POTS switcher release 7.2'
p1360
asS'Sony | Symbian || phone'
p1361
(lp1362
S'Sony Ericsson P800 mobile phone, Symbian OS v7.0'
p1363
asS'Bay Networks | embedded || switch'
p1364
(lp1365
S'Bay Networks BayStack 310T switch'
p1366
aS'BayStack 28115/ADV Fast Ethernet Switch'
p1367
aS'BayStack 450-24T switch'
p1368
asS'Teltrend | embedded || router'
p1369
(lp1370
S'Teltrend (aka Securicor 3net) Router'
p1371
asS'Galacticomm | WorldGroup || BBS'
p1372
(lp1373
S'Galacticomm WorldGroup BBS (MajorBBS) w/TCP/IP'
p1374
aS'Galacticomm WorldGroup BBS / Vircom TCP/IP stack'
p1375
asS'Intracom | embedded || broadband router'
p1376
(lp1377
S'Intergraph jetSpeed 520 ADSL Router'
p1378
asS'Linux | Linux | 2.2.X | general purpose'
p1379
(lp1380
S'Linux 2.1.19 - 2.2.25'
p1381
aS'Linux 2.2.12 - 2.2.25'
p1382
aS'Linux 2.2.13'
p1383
aS'Linux 2.2.13 (SuSE; x86)'
p1384
aS'Linux 2.2.14'
p1385
aS'Linux 2.2.16C37_III on Sun Cobalt'
p1386
aS'Linux 2.2.19'
p1387
aS'Linux 2.2.19 (Alpha)'
p1388
aS'Linux 2.2.19 - 2.2.20'
p1389
aS'Linux 2.2.19 on a DEC Alpha'
p1390
aS'Linux 2.2.20 SMP'
p1391
aS'Linux 2.2.21 SMP (x86)'
p1392
aS'Linux 2.2.22'
p1393
aS'Linux 2.2.5 - 2.2.13 SMP'
p1394
aS'Linux 2.4.4'
p1395
asS'Linksys | embedded || broadband router'
p1396
(lp1397
S'Linksys BEFSR41 Broadband router'
p1398
aS'Linksys BEFSR41 Broadband router'
p1399
aS'Linksys BEFSR41 V3 Etherfast cable/DSL router'
p1400
aS'Linksys BEFVP41 VPN Router'
p1401
aS'Linksys BEFW11S4 Wireless DSL/Cable Router'
p1402
aS'Linksys BEFW11S4 Wireless DSL/Cable Router'
p1403
aS'Linksys WAG54G Wireless Broadband Router'
p1404
aS'Linksys WAG54G Wireless Gateway'
p1405
aS'Linksys WRT54G Wireless Broadband Router (Linux kernel 2.4.20)'
p1406
asS'DEC | DIGITAL UNIX | 2.X | general purpose'
p1407
(lp1408
S'DEC OSF/1 V1.3A - 2.0'
p1409
asS'HP | HP-UX | 11.X | general purpose'
p1410
(lp1411
S'Apple Mac OS 9.04 or HP-UX B.11.00'
p1412
aS'HP-UX 11'
p1413
aS'HP-UX 11 w/tcp_isn_passphrase'
p1414
aS'HP-UX 11.00'
p1415
aS'HP-UX 11.11'
p1416
aS'HP-UX 11.11'
p1417
aS'HP-UX B.11.00 A 9000/785'
p1418
aS'HP-UX B.11.00 A 9000/800'
p1419
aS'HP-UX B11.00 U 9000/839'
p1420
asS'Sun | Solaris | 2.X | general purpose'
p1421
(lp1422
S'Sun Solaris 2.3 - 2.4'
p1423
aS'Sun Solaris 2.4 w/most Sun patches (jumbo cluster patch, security patches, etc)'
p1424
aS'Sun Solaris 2.5, 2.5.1'
p1425
aS'Sun Solaris 2.6'
p1426
aS'Sun Solaris 2.6 (SPARC)'
p1427
asS'HP | embedded || X terminal'
p1428
(lp1429
S'HP Entria II X station'
p1430
asS'Cray | UNICOS || general purpose'
p1431
(lp1432
S'Cray UNICOS 9.0 - 10.0 or UNICOS/mk 1.5.1'
p1433
aS'Cray UNICOS 9.0.1ai - 10.0.0.2'
p1434
asS'GrandStream | embedded || VoIP phone'
p1435
(lp1436
S'Grandstream BT-100 IP Phone'
p1437
aS'GrandStream BT-100 IP Phone'
p1438
aS'Grandstream BT-101 IP phone'
p1439
aS'GrandStream BT-101 IP phone'
p1440
aS'Grandstream BudgeTone 101 IP Phone'
p1441
aS'Grandstream IP Phone'
p1442
aS'GrandStream VoIP Phone (BudgeTone-100)'
p1443
aS'Grandstream VoIP Phone (BudgeTone-101)'
p1444
asS'ACC | embedded || router'
p1445
(lp1446
S'ACC Amazon 9.2.29 or Congo 9.2.35 WAN concentrator'
p1447
asS'Siemens | SINIX || general purpose'
p1448
(lp1449
S'Siemens SINIX-N 5.41C0005'
p1450
aS'Siemens SINIX-N 5.43C3002'
p1451
aS'Siemens SINIX-Y 5.43B0045'
p1452
aS'Siemens SINIX-Y 5.43C4001'
p1453
asS'Cisco | PIX | 5.X | firewall'
p1454
(lp1455
S'Cisco PIX Firewall (PixOS 5.2 - 6.1)'
p1456
aS'Cisco Secure PIX Firewall Version 5.0(2)'
p1457
asS'D-Link | embedded || webcam'
p1458
(lp1459
S'D-Link DCS-1000 webcam with firmware 1.06'
p1460
aS'D-Link dcs-5300w Wireless WebCam'
p1461
aS'D-Link DVC-1000 Wireless Broadband VideoPhone'
p1462
asS'Cisco | CacheOS || web proxy'
p1463
(lp1464
S'Cisco CacheOS (1.1.0)'
p1465
asS'Smoothwall | Linux | 2.2.X | firewall'
p1466
(lp1467
S'Smoothwall Linux-based firewall 2.2.23'
p1468
asS'IBM | embedded || storage-misc'
p1469
(lp1470
S'IBM 3494 Magnetic Tape Library'
p1471
asS'Apple | Mac OS X | 10.2.X | general purpose'
p1472
(lp1473
S'Apple Mac OS X 10.1.5-10.2.8'
p1474
aS'Apple Mac OS X 10.2.6'
p1475
aS'Apple Mac OS X 10.2.6 (Jaguar)'
p1476
aS'Apple Mac OS X 10.2.8 (Jaguar)'
p1477
aS'Apple Mac OS X Server 10.2.8'
p1478
asS'Softek | embedded || specialized'
p1479
(lp1480
S'Softek Digi One serial device server'
p1481
asS'Asante | embedded || hub'
p1482
(lp1483
S'Asante FriendlyNet FR3004 Series Internet Hub'
p1484
aS'AsanteHub 2072 Ethernet hub'
p1485
asS'NetApp | Data ONTAP || fileserver'
p1486
(lp1487
S'NetApp Data ONTAP 3.1.6 or BSDi 1.1'
p1488
aS'NetApp Data ONTAP 5.1.2 - 5.3.5r2'
p1489
aS'NetApp Data ONTAP 6.1.2R3 on an F840 filer'
p1490
aS'NetApp Data ONTAP Release 6.3.1'
p1491
aS'NetApp F360 or F760 Filer'
p1492
aS'NetApp ONTAP Release 6.3.3'
p1493
aS'Network Appliance Filer running Data ONTAP Release 6.4.3'
p1494
asS'Microsoft | Windows Longhorn || general purpose'
p1495
(lp1496
S'Microsoft Windows Longhorn Preview'
p1497
asS'Cisco | PIX | 6.X | firewall'
p1498
(lp1499
S'Cisco Firewall (PIX 6.1.4 - 6.2.2)'
p1500
aS'Cisco PIX 501 firewall running PIX 6.1(1)'
p1501
aS'Cisco PIX 515 or 525 Firewall running 6.1(4) - 6.2(1)'
p1502
aS'Cisco PIX Firewall Version 6.1(2)'
p1503
aS'Cisco PIX Firewall Version 6.2(1)'
p1504
aS'Cisco PIX Firewall Version 6.2(2) - 6.3'
p1505
asS'Chase | embedded || terminal server'
p1506
(lp1507
S'Chase IOLan Terminal Server'
p1508
aS'Chase/Perle IOLAN Terminal Server'
p1509
aS'Chase/Perle IOLAN terminal server'
p1510
asS'ZyXel | ZyNOS || WAP'
p1511
(lp1512
S'ZyXel ZyAir B-4000 Wireless Lan Access Point'
p1513
asS'NetSilicon | ThreadX || specialized'
p1514
(lp1515
S'NetSilicon NetARM running ThreadX 2.0'
p1516
asS'Leunig | embedded || power-device'
p1517
(lp1518
S'Leunig ePower Switch b723 v5.2'
p1519
asS'Clipcomm | embedded || VoIP phone'
p1520
(lp1521
S'Clipcomm CP-100 VoIP phone'
p1522
asS'BayTech | embedded || power-device'
p1523
(lp1524
S'BayTech Remote Power Control RPC3-15NC or RPC4'
p1525
asS'Microsoft | Windows | PocketPC/CE | specialized'
p1526
(lp1527
S'Microsoft Windows CE 3.0'
p1528
aS'Microsoft Windows CE or Pocket PC (PDA or other embedded device)'
p1529
asS'Cisco | embedded || router'
p1530
(lp1531
S'Cisco Router C2600 running IOS 12.2(2)T'
p1532
aS'Cisco X.25/TCP/LAT Protocol Translator ver 8.2(4)'
p1533
asS'Cantillion | embedded || switch'
p1534
(lp1535
S'Alteon AceSwitch 110 or Cantillion C100 ATM Switch'
p1536
asS'Wooksung | embedded || telecom-misc'
p1537
(lp1538
S'Wooksung TelePhoSee WVP-2100 teleconference system'
p1539
asS'Alcatel | embedded || telecom-misc'
p1540
(lp1541
S'Alcatel OmniPcx 4400 telephone system'
p1542
asS'APC | embedded || power-device'
p1543
(lp1544
S'APC MasterSwitch Network Power Controller'
p1545
aS'APC Network management Card AP9616'
p1546
aS'APC network-enabled UPS'
p1547
aS'APC UPS Network Management Card'
p1548
aS'APC UPS system'
p1549
aS'APC UPS System network management card (runs AOS v2.5.3)'
p1550
aS'APC Web/SNMP UPS management card'
p1551
asS'Sony | embedded || robotic pet'
p1552
(lp1553
S'Sony AIBO ERS-7 running AIBO Mind 2'
p1554
asS'Be | BeOS | 4.X | general purpose'
p1555
(lp1556
S'BeOS 4 - 4.5'
p1557
asS'Intel | embedded || firewall'
p1558
(lp1559
S'Intel NetStructure 3110 VPN Gateway'
p1560
asS'Hawking | embedded || print server'
p1561
(lp1562
S'Hawking PS12U Embedded Print Server'
p1563
asS'BinTec | embedded || broadband router'
p1564
(lp1565
S'BinTEC BIANCA/BRIK-XS Broadband router V. 6.X'
p1566
aS'BinTec BingoDSL/X4000 Router Firmware V. 7.1'
p1567
aS'BinTec XS/XM ISDN access router V. 4.9.1-4.9.3'
p1568
aS'VPN Access 25 version V. 7.1'
p1569
asS'FreeBSD | FreeBSD | 3.X | general purpose'
p1570
(lp1571
S'FreeBSD 3.4-RELEASE'
p1572
asS'Apple | Mac OS X | 10.1.X | general purpose'
p1573
(lp1574
S'Apple Mac OS X 10.1 - 10.1.4'
p1575
aS'Apple Mac OS X 10.1.4 (Darwin Kernel 5.4) on iMac'
p1576
aS'Apple Mac OS X 10.1.5'
p1577
aS'Apple Mac OS X Server 10.1.2 (ppc)'
p1578
asS'SMC | embedded || broadband router'
p1579
(lp1580
S'SMC Barricade SMC7004VR2.0EU DSL router'
p1581
asS'Dell | embedded || storage-misc'
p1582
(lp1583
S'Dell Powervault 132T Automated Tape Library'
p1584
aS'Dell Powervault 132T Automated Tape Library'
p1585
aS'Dell Tape Library MSL6030'
p1586
asS'Siemens | embedded || VoIP phone'
p1587
(lp1588
S'Siemens HiCom 300E business phone system Release 6.5'
p1589
asS'Necomm | embedded || broadband router'
p1590
(lp1591
S'Necomm NB1300 DSL router'
p1592
asS'3Com | ComOS || terminal server'
p1593
(lp1594
S'ComOS based terminal server - Livingston PortMaster or U.S. Robotics/3Com Total Control'
p1595
asS'Microsoft | Windows | 95/98/ME | general purpose'
p1596
(lp1597
S'Microsoft Windows for Workgroups 3.11 / TCP/IP-32 3.11b stack or Windows 98'
p1598
aS'Microsoft Windows 95 4.00.950'
p1599
aS'Microsoft Windows 95 4.00.950B'
p1600
aS'Microsoft Windows 95 4.00.950B (IE 5 5.00 2314.1003)'
p1601
aS'Microsoft Windows 98'
p1602
aS'Microsoft Windows 98'
p1603
aS'Microsoft Windows 98 4.10.1998'
p1604
aS'Microsoft Windows 98 4.10.1998'
p1605
aS'Microsoft Windows 98 or 98SE'
p1606
aS'Microsoft Windows 98 SP1'
p1607
aS'Microsoft Windows 98 SP2'
p1608
aS'Microsoft Windows 98SE'
p1609
aS'Microsoft Windows 98SE'
p1610
aS'Microsoft Windows 98SE'
p1611
aS'Microsoft Windows 98SE'
p1612
aS'Microsoft Windows 98SE'
p1613
aS'Microsoft Windows 98SE'
p1614
aS'Microsoft Windows 98SE + IE5.5sp1'
p1615
aS'Microsoft Windows 98SE SP1'
p1616
aS'Microsoft Windows 98SE with security patch A'
p1617
aS'Microsoft Windows Millennium Edition (Me)'
p1618
aS'Microsoft Windows Millennium Edition (Me)'
p1619
aS'Microsoft Windows Millennium Edition (Me)'
p1620
aS'Microsoft Windows Millennium Edition (Me), Windows 2000, or Windows XP'
p1621
aS'Turtle Beach AudioTron 100 network MP3 player or Microsoft Windows 98SE'
p1622
asS'Linux | Linux | 2.4.X | general purpose'
p1623
(lp1624
S'Astaro Security Linux 4 (Kernel 2.4.19)'
p1625
aS'Gentoo 1.2 linux (Kernel 2.4.19-gentoo-rc5)'
p1626
aS'Linux 2.2.16'
p1627
aS'Linux 2.4.0-test5'
p1628
aS'Linux 2.4.10 - 2.4.18'
p1629
aS'Linux 2.4.16 - 2.4.18'
p1630
aS'Linux 2.4.17 on HP 9000 s700'
p1631
aS'Linux 2.4.18'
p1632
aS'Linux 2.4.18'
p1633
aS'Linux 2.4.18 (PPC)'
p1634
aS'Linux 2.4.18 (x86)'
p1635
aS'Linux 2.4.18 (x86)'
p1636
aS'Linux 2.4.18 - 2.4.19 w/o tcp_timestamps'
p1637
aS'Linux 2.4.18 - 2.4.20'
p1638
aS'Linux 2.4.18 - 2.4.20 (x86)'
p1639
aS'Linux 2.4.18 - 2.4.21 (x86)'
p1640
aS'Linux 2.4.18 - 2.4.27'
p1641
aS'Linux 2.4.19'
p1642
aS'Linux 2.4.19'
p1643
aS'Linux 2.4.19 (Mandrake, X86)'
p1644
aS'Linux 2.4.19 (x86)'
p1645
aS'Linux 2.4.19 - 2.4.20'
p1646
aS'Linux 2.4.19 w/grsecurity patch'
p1647
aS'Linux 2.4.20'
p1648
aS'Linux 2.4.20'
p1649
aS'Linux 2.4.20'
p1650
aS'Linux 2.4.20'
p1651
aS'Linux 2.4.20'
p1652
aS'Linux 2.4.20'
p1653
aS'Linux 2.4.20'
p1654
aS'Linux 2.4.20 (Red Hat)'
p1655
aS'Linux 2.4.20 (X86, Redhat 7.3)'
p1656
aS'Linux 2.4.20 - 2.4.22 w/grsecurity.org patch'
p1657
aS'Linux 2.4.20 x86'
p1658
aS'Linux 2.4.20-ac2'
p1659
aS'Linux 2.4.21'
p1660
aS'Linux 2.4.21 (RedHat)'
p1661
aS'Linux 2.4.21 (RedHat)'
p1662
aS'Linux 2.4.21 (Suse)'
p1663
aS'Linux 2.4.21 (Suse, X86)'
p1664
aS'Linux 2.4.21 (x86 SuSE)'
p1665
aS'Linux 2.4.21 (x86)'
p1666
aS'Linux 2.4.21 (x86, RedHat)'
p1667
aS'Linux 2.4.22'
p1668
aS'Linux 2.4.22 (SPARC)'
p1669
aS'Linux 2.4.22 (x86) w/grsecurity patch and with timestamps disabled'
p1670
aS'Linux 2.4.22 - 2.6.8'
p1671
aS'Linux 2.4.22 or 2.6.4 - 2.6.10'
p1672
aS'Linux 2.4.22-ck2 (x86)   w/grsecurity.org and HZ=1000 patches'
p1673
aS'Linux 2.4.22-gentoo-r2 i686'
p1674
aS'Linux 2.4.22-gentoo-r5 (x86) w/grsecurity'
p1675
aS'Linux 2.4.22-gentoo-rc'
p1676
aS'Linux 2.4.23 (x86)'
p1677
aS'Linux 2.4.23-grsec w/o timestamps'
p1678
aS'Linux 2.4.25 w/grsec (x86)'
p1679
aS'Linux 2.4.26'
p1680
aS'Linux 2.4.26'
p1681
aS'Linux 2.4.26'
p1682
aS'Linux 2.4.26'
p1683
aS'Linux 2.4.26 (gentoo)'
p1684
aS'Linux 2.4.26-gentoo-r6 w/grsec'
p1685
aS'Linux 2.4.27 with grsec'
p1686
aS'Linux 2.4.27 with grsec'
p1687
aS'Linux 2.4.29'
p1688
aS'Linux 2.4.30'
p1689
aS'Linux 2.4.4'
p1690
aS'Linux 2.4.6 - 2.4.26 or 2.6.9'
p1691
aS'Linux 2.4.7 (x86)'
p1692
aS'Linux 2.4.7 (zLinux on OS/390)'
p1693
aS'Linux 2.4.9 - 2.4.18'
p1694
aS'Microsoft Xbox running Debian Linux 2.4.20'
p1695
asS'BenQ | embedded || WAP'
p1696
(lp1697
S'BenQ Wireless Lan Router AWL700'
p1698
asS'Cisco | NmpSW || switch'
p1699
(lp1700
S'Cisco Catalyst 4006 Switch running NmpSW 7.4(2)'
p1701
asS'lwIP | lwIP || general purpose'
p1702
(lp1703
S'lwIP (Lightweight TCP/IP stack) version lwip-0.5.3-win32'
p1704
asS'uIP | uIP || specialized'
p1705
(lp1706
S'Contiki 1.2-devel0 embedded OS on Ethernut card or uIP 0.9 TCP/IP stack'
p1707
asS'Siemens | ReliantUNIX || general purpose'
p1708
(lp1709
S'ReliantUNIX-Y 5.44 B0033 RM600 1/256 R10000'
p1710
aS'Siemens Reliant UNIX 5.45B20'
p1711
aS'Siemens RM200-C40 running ReliantUNIX-N 5.45'
p1712
asS'Linksys | embedded || WAP'
p1713
(lp1714
S'Linksys WAP11 Wireless AP'
p1715
asS'Cisco | embedded || broadband router'
p1716
(lp1717
S'Cisco 761 running c760-in.r.NET3 4.3(1)'
p1718
aS'Cisco 762 Non-IOS Software release 4.1(2) or 766 ISDN router'
p1719
aS'Cisco 766 non-IOS software 4.2(3.5)'
p1720
aS'Cisco Soho 97 router running IOS 12.3(8)'
p1721
asS'Datavoice | embedded || CSUDSU'
p1722
(lp1723
S'Datavoice 3Com WAP or TxPORT PRISM T1 CSU/DSU'
p1724
asS'SGI | IRIX | 6.X | general purpose'
p1725
(lp1726
S'SGI IRIX 6.2'
p1727
aS'SGI IRIX 6.2 - 6.5'
p1728
aS'SGI IRIX 6.2 - 6.5'
p1729
aS'SGI IRIX 6.4 - 6.5.3m  # Lamont Granquist (again :)'
p1730
aS'SGI IRIX 6.5'
p1731
aS'SGI IRIX 6.5 (MIPS)'
p1732
aS'SGI IRIX 6.5 Origin2'
p1733
aS'SGI IRIX 6.5-6.5.15m'
p1734
aS'SGI IRIX 6.5.14'
p1735
aS'SGI IRIX 6.5.15m on SGI O2'
p1736
aS'SGI IRIX 6.5.16m'
p1737
aS'SGI IRIX 6.5.20m'
p1738
aS'SGI IRIX 6.5.20m'
p1739
aS'SGI IRIX 6.5.25'
p1740
aS'SGI IRIX 6.5.7f-6.5.8f'
p1741
aS'SGI IRIX 6.5.7f-6.5.8f'
p1742
asS'Telebit | embedded || router'
p1743
(lp1744
S'Telebit NetBlazer router version 3.0'
p1745
aS'Telebit NetBlazer router Version 3.05'
p1746
aS'Telebit NetBlazer router Version 3.1'
p1747
asS'Sun | Solaris | 7 | general purpose'
p1748
(lp1749
S'Sun Solaris 2.6 - 7 with tcp_strong_iss=0'
p1750
aS'Sun Solaris 2.6 - 7 with tcp_strong_iss=2'
p1751
aS'Sun Solaris 2.6 - 7 x86'
p1752
asS'innovaphone | embedded || telecom-misc'
p1753
(lp1754
S'innovaphone IP200/IP400 VoIP phone/gateway'
p1755
asS'Open Networks | embedded || broadband router'
p1756
(lp1757
S'Open Network 501r or 531r (ADSL Router)'
p1758
asS'Packet8 | embedded || VoIP adapter'
p1759
(lp1760
S'Packet8 BPA410 Broadband Phone Adapter'
p1761
aS'Packet8 DTA310 VoIP/POTS gateway'
p1762
aS'Packet8 DTA310 VoIP/POTS gateway'
p1763
asS'Redback | embedded || broadband router'
p1764
(lp1765
S'Redback SMS 1000-2000 DSL Router'
p1766
asS'Asante | embedded || switch'
p1767
(lp1768
S'Asante 6524-2G GigE switch'
p1769
aS'Asante IntraStack Ethernet Switch (6014 DSB Versions: BP(2.06 ), FW(1.03 ))'
p1770
aS'Asante IntraSwitch 5324'
p1771
aS'Asante IntraSwitch 6216M firmware v2.05A'
p1772
asS'CompUSA | embedded || broadband router'
p1773
(lp1774
S'CompUSA Broadband Router'
p1775
asS'Brother | embedded || printer'
p1776
(lp1777
S'Brother HL-1230 Printer'
p1778
aS'Brother HL-2070N Printer'
p1779
asS'Network Systems | embedded || router'
p1780
(lp1781
S'Network Systems router NS6614 (NSC 6600 series)'
p1782
asS'DEC | IOS | 10.X | router'
p1783
(lp1784
S'Cisco 1601 (IOS 11.0) or DECbrouter90T1 (Runs Cisco IOS 10.2(5))'
p1785
asS'Swissvoice | embedded || VoIP phone'
p1786
(lp1787
S'Swissvoice IP 10S VoIP phone'
p1788
asS'HP | BSD-misc || general purpose'
p1789
(lp1790
S'HP-BSD 2.0'
p1791
asS'Cnet | embedded || broadband router'
p1792
(lp1793
S'Cnet CNIG904B Internet Broadband Gateway firmware version 1.11'
p1794
asS'Checkpoint | IPSO || firewall'
p1795
(lp1796
S'Nokia IPSO 3.2-3.5 Running Checkpoint Firewall-1 or NG FP2'
p1797
aS'Nokia IPSO 3.6 running CheckPoint FW-1 NG FP2'
p1798
asS'Alteon | embedded || switch'
p1799
(lp1800
S'Alteon ACEswitch 184 V. 8.0.49'
p1801
asS'Cisco | IOS | 11.X | switch'
p1802
(lp1803
S'Cisco Router/Switch with IOS 11.2'
p1804
aS'Cisco switch/router with IOS 11.1(7)-11.2(8.10)'
p1805
asS'Ascend | embedded || broadband router'
p1806
(lp1807
S'Ascend DSLPipe DSL-50S-CELL DSL router'
p1808
asS'AXIS | Linux || print server'
p1809
(lp1810
S'AXIS Network Print Server'
p1811
asS'Apple | Mac OS X | 10.0.X | general purpose'
p1812
(lp1813
S'Apple Mac OS X 1.1-1.2 (Rhapsody 5.5-5.6) on a G3'
p1814
aS'Apple Mac OS X Server 1.0-1.0-1 (Rhapsody 5.3 - 5.4)'
p1815
aS'FreeBSD 4.4-5 or Apple Mac OS X 10.0.4 (Darwin V. 1.3-1.3.7 or 4P13)'
p1816
asS'Amiga | AmigaOS || general purpose'
p1817
(lp1818
S'Amiga OS 3.5 (Miami TCP/IP Stack v3.1)'
p1819
aS'AmigaOS 2.1 running AmiTCP4.3'
p1820
aS'AmigaOS 3.1 running Miami Deluxe 0.9m'
p1821
aS'AmigaOS 3.5/3.9 running Miami Deluxe 1.0c'
p1822
aS'AmigaOS AmiTCP/IP 4.3'
p1823
aS'AmigaOS AmiTCP/IP Genesis 4.6'
p1824
aS'AmigaOS Miami 2.1-3.0'
p1825
aS'AmigaOS Miami 3.0'
p1826
aS'AmigaOS Miami 3.1-3.2'
p1827
aS'AmigaOS Miami Deluxe 0.9 - Miami 3.2B'
p1828
asS'Hydra | embedded || load balancer'
p1829
(lp1830
S'Hydra HydraWEB 5000'
p1831
asS'Linksys | embedded || bridge'
p1832
(lp1833
S'Linksys WET-11 Wireless Ethernet bridge'
p1834
aS'Linksys WGA54G Wireless Game Adapter (bridge)'
p1835
asS'm0n0wall | FreeBSD | 5.X | firewall'
p1836
(lp1837
S'M0n0wall 1.2b7 FreeBSD 5.3 based firewall'
p1838
asS'Tandem | Tandem NSK || general purpose'
p1839
(lp1840
S'Tandem NSK D39'
p1841
aS'Tandem NSK D40'
p1842
asS'MikroTik | RouterOS || software router'
p1843
(lp1844
S'MikroTik RouterOS 2.7.20'
p1845
asS'AXIS | embedded || print server'
p1846
(lp1847
S'AXIS 540 Ethernet Print Server ver 5.48'
p1848
aS'AXIS 540 Print Server'
p1849
aS'AXIS 540/542 Print Server v5.30'
p1850
aS'AXIS Print Server firmware 7.0.2'
p1851
asS'Kyocera | embedded || printer'
p1852
(lp1853
S'Kyocera FS-1700+ printer'
p1854
aS'Kyocera IB-21 Printer NIC'
p1855
aS'Kyocera SB-4e printer NIC'
p1856
asS'OpenBSD | OpenBSD | 2.7 | general purpose'
p1857
(lp1858
S'OpenBSD 2.7/SPARC or NFR IDS Appliance ( 12/10/00 )'
p1859
asS'Quantum | embedded || storage-misc'
p1860
(lp1861
S'Quantum Snap server 4100'
p1862
aS'Quantum Snap Server Network Storage Box'
p1863
asS'Tally | embedded || printer'
p1864
(lp1865
S'Tally 9112 Printer'
p1866
aS'Tallycom+ Print Server'
p1867
asS'Apple | A/UX || general purpose'
p1868
(lp1869
S'Apple A/UX 3.1.1 SVR2 or OpenStep 4.2'
p1870
asS'Nokia | embedded || router'
p1871
(lp1872
S'Nokia Rooftop Wireless Router model R240A'
p1873
asS'NEC | UX/4800 || general purpose'
p1874
(lp1875
S'NEC UX/4800'
p1876
asS'Terayon | embedded || broadband router'
p1877
(lp1878
S'Terayon Tj715x cable modem'
p1879
asS'Huawei | VRP || router'
p1880
(lp1881
S'Huawei Quidway R2621 router running VRP 1.5.6(1)'
p1882
aS'Huawei Quidway Router R2621E VRP 1.5.6'
p1883
asS'Ericsson | embedded || terminal server'
p1884
(lp1885
S'Ericsson Tigris Access Server Software V. 12.1.*'
p1886
asS'Perle | embedded || remote management'
p1887
(lp1888
S'Perle 594e Network Controller'
p1889
asS'Netscreen | ScreenOS || firewall'
p1890
(lp1891
S'Netscreen 5XP firewall+vpn (OS 3.0.1r2)'
p1892
aS'Netscreen 5XP firewall+vpn (os 4.0.3r2.0)'
p1893
asS'Cisco | Content Networking System || web proxy'
p1894
(lp1895
S'Cisco ACNS 5.1 Content Engine'
p1896
aS'Cisco Content Engine 505 Software V. 4.2.1'
p1897
aS'Cisco Content Engine 560 running Content Networking System V. 4.2.3'
p1898
aS'Cisco Content Engine ACNSS V5.2.1 or V5.3.1'
p1899
asS'HP | HP-UX | 10.X | general purpose'
p1900
(lp1901
S'HP-UX 10.20 # 9000/777 or A 712/60 with tcp_random_seq = 1 or 2'
p1902
aS'HP-UX 10.20 A 9000/715 or 9000/899'
p1903
aS'HP-UX 10.20 E 9000/777 or A 712/60 with tcp_random_seq = 0'
p1904
aS'HP-UX B.10.01 A 9000/715'
p1905
aS'HP-UX B.10.20 9000/897'
p1906
aS'HP-UX B.10.20 A 9000/715 or 9000/712 or 9000/871 with tcp_random_seq = 1'
p1907
aS'HP-UX B.10.20 A 9000/750'
p1908
aS'HP-UX B.10.20 A with tcp_random_seq = 0'
p1909
aS'HP-UX release B.10.20 version A'
p1910
asS'SonicWall | SonicOS || firewall'
p1911
(lp1912
S'SonicWall 4060 firewall'
p1913
aS'SonicWall PRO 3060 firewall'
p1914
aS'SonicWall SOHO-3 firewall'
p1915
aS'SonicWall SOHO-3 firewall'
p1916
aS'SonicWall SOHO3 firewall'
p1917
aS'SonicWall TZ 170'
p1918
aS'SonicWall TZ 170 Firewall'
p1919
aS'SonicWall TZ170 Firewall'
p1920
aS'SonicWall/10 firewall'
p1921
aS'SonicWall/10 firewall'
p1922
asS'Cisco | PIX || firewall'
p1923
(lp1924
S'Cisco PIX 506 Firewall'
p1925
asS'Meridian | embedded || storage-misc'
p1926
(lp1927
S'Meridian Data Network CD-ROM Server (V4.20 Nov 26 1997)'
p1928
asS'Gandalf | embedded || router'
p1929
(lp1930
S'Gandalf LanLine Router'
p1931
asS'Eicon | embedded || broadband router'
p1932
(lp1933
S'Eicon Diva1830 ISDN router running 1.5 firmware'
p1934
asS'IBM | AIX | 5.X | general purpose'
p1935
(lp1936
S'IBM AIX 5.1'
p1937
aS'IBM AIX 5.1'
p1938
aS'IBM AIX 5.1'
p1939
aS'IBM AIX 5.1 - 5.2'
p1940
aS'IBM AIX 5.1 - 5.2'
p1941
aS'IBM AIX 5.1 on a p610-6C1'
p1942
aS'IBM AIX 5.1-5.2'
p1943
aS'IBM AIX 5.103'
p1944
aS'IBM AIX 5.2'
p1945
aS'IBM AIX 5.2 (on RS/6000)'
p1946
aS'IBM AIX 5.2.3'
p1947
aS'IBM AIX 5.3'
p1948
aS'IBM AIX 5.3 ML01'
p1949
asS'Cisco | IOS | 12.X | broadband router'
p1950
(lp1951
S'Cisco 827 ADSL router running IOS 112.2(11)'
p1952
aS'Cisco 827 ADSL router running IOS 12.1(1)XB1'
p1953
asS'Cisco | embedded || encryption accelerator'
p1954
(lp1955
S'Cisco 3000 Series VPN Concentrator'
p1956
aS'Cisco 3000 Series VPN concentrator (OS ver 4.1.x)'
p1957
asS'Cisco | IOS | 12.X | switch'
p1958
(lp1959
S'Cisco catalyst 2924 running IOS 12.0(5)WC5'
p1960
aS'Cisco Catalyst 2924XL switch running IOS 12.0(5)'
p1961
aS'Cisco Catalyst 2950 switch running IOS 12.0(5.3)WC(1)'
p1962
aS'Cisco Catalyst 2950 switch running IOS 12.1(9)EA1 or IOS 12.1(22)EA2'
p1963
aS'Cisco IOS 12.0(5)WC5a on a catalyst 2900XL switch'
p1964
asS'Apple | Mac OS | 8.X | general purpose'
p1965
(lp1966
S'Apple Mac OS 8 running on an LC 475'
p1967
aS'Apple Mac OS 8.0'
p1968
aS'Apple Mac OS 8.1'
p1969
aS'Apple Mac OS 8.1'
p1970
aS'Apple Mac OS 8.1'
p1971
aS'Apple Mac OS 8.1 running on a PowerPC G3 (iMac)'
p1972
aS'Apple Mac OS 8.5'
p1973
aS'Apple Mac OS 8.5.1 (Appleshare IP 6.0)'
p1974
aS'Apple Mac OS 8.6'
p1975
aS'Apple Mac OS 8.6'
p1976
aS'Apple Mac OS 8.6'
p1977
aS'Apple Mac OS 8.6'
p1978
asS'Beck-IPC | embedded || specialized'
p1979
(lp1980
S'IPC@CHIP CHIP-RTOS version SC12'
p1981
asS'Compatible Systems | embedded || broadband router'
p1982
(lp1983
S'Compatible Systems ISDN/leased-line/dialup Microrouter 2220R w/ firmware v4.5'
p1984
aS'Compatible Systems ISDN/leased-line/dialup MicroRouter 900i v3.0.9'
p1985
asS'SGI | IRIX | 5.X | general purpose'
p1986
(lp1987
S'SGI IRIX 5.2'
p1988
aS'SGI IRIX 5.3'
p1989
asS'FiberLine | embedded || broadband router'
p1990
(lp1991
S'FiberLine Wireless DSL router'
p1992
asS'Microsoft | DOS || general purpose'
p1993
(lp1994
S"Bart's Network Boot Disk 2.7 (X86) MS-DOS"
p1995
aS'NCSA Telnet (dos)'
p1996
aS'NCSA Telnet 2.3.08 for the PC (DOS)'
p1997
aS'Watt-32 DOS tcp/ip stack'
p1998
aS'WNOS 5.0 on Microsoft DOS 6.22'
p1999
asS'Novell | NetWare | 5.X | general purpose'
p2000
(lp2001
S'Novell NetWare 3.12 - 5.00'
p2002
aS'Novell NetWare 4.11-5.0SP5'
p2003
aS'NetWare 5.0 SP 3a'
p2004
aS'NetWare 5.1 SP3'
p2005
aS'Novell NetWare 5.0 with Border Manager'
p2006
aS'Novell NetWare 5.00.09 SP06'
p2007
aS'Novell NetWare 5.1 SP5'
p2008
aS'Novell NetWare 5.1 SP5 with Groupwise'
p2009
aS'Novell NetWare 5.x'
p2010
asS'PowerShow | embedded || webcam'
p2011
(lp2012
S'PowerShow NetworKam webcam'
p2013
asS'Grandstream | embedded || VoIP adapter'
p2014
(lp2015
S'Grandstream HT-286 POTS<->VoIP phone gateway device'
p2016
asS'Ascend | embedded || router'
p2017
(lp2018
S'Ascend Max 1800 50Ap8+ or 2024 router'
p2019
aS'Ascend P130 Router'
p2020
aS'Ascend P75 router'
p2021
aS'Ascend Pipeline 400/T1 (Software V 4.5B)'
p2022
aS'Ascend Pipeline 50'
p2023
aS'Ascend Pipeline 50 rev 4.6C'
p2024
aS'Ascend Pipeline 50 running 5.1A Firmware'
p2025
aS'Ascend Pipeline P130 or 50'
p2026
asS'IBM | embedded || router'
p2027
(lp2028
S'IBM 2210 router'
p2029
aS'IBM 2210 Router MRS 2.x on Token Ring interface'
p2030
aS'IBM 8210 Multiprotocol Switching Server/router for ATM networks'
p2031
asS'Toshiba | embedded || printer'
p2032
(lp2033
S'Toshiba estudio 4511 Multifunction Copier/Fax/Scanner/Printer'
p2034
asS'BreezeCOM | embedded || bridge'
p2035
(lp2036
S'BreezeCOM BreezeACCESS Wireless bridge'
p2037
asS'CacheFlow | CacheOS || web proxy'
p2038
(lp2039
S'CacheFlow 6000 web proxy cache running CacheOS 4.1.05'
p2040
aS'CacheFlow 6000 web proxy running Security Gateway 2.1.0'
p2041
aS'Cacheflow 6x5 web proxy cache running CacheOS 3.1.19-4.1.05'
p2042
aS'CacheFlow CacheOS (web proxy cache) CFOS 2.1.08 - 2.2.1'
p2043
aS'CacheFlow CacheOS 3.1 on a model 6000 web proxy cache'
p2044
aS'CacheOS (CacheFlow 2000 proxy cache)'
p2045
asS'Dell | embedded || printer'
p2046
(lp2047
S'Dell 3100cn/5100cn printer'
p2048
asS'NAT | embedded || router'
p2049
(lp2050
S'NAT LANB/290 router Console Program V4.00'
p2051
asS'Sun | embedded || storage-misc'
p2052
(lp2053
S'Sun StorEdge T3 Storage Array'
p2054
asS'Zcomax | embedded || WAP'
p2055
(lp2056
S'Zcomax Wireless Access Point XI-1500'
p2057
asS'Belkin | embedded || broadband router'
p2058
(lp2059
S'Belkin DSL/Cable Router'
p2060
asS'Cyclades | Cyros || router'
p2061
(lp2062
S'Cyclades PathRouter V 1.2.4'
p2063
asS'Wiesemann & Theis | embedded || specialized'
p2064
(lp2065
S'WuT Web Thermometer'
p2066
asS'NetApp | embedded || web proxy'
p2067
(lp2068
S'NetApp NetCache C1100 (NetApp 5.1D4)'
p2069
aS'NetApp NetCache C1100 with NetAppliance 5.0'
p2070
aS'NetApp NetCache C6100 (NetApp 5.5)'
p2071
aS'NetApp NetCache C760 os 4.x'
p2072
aS'NetApp NetCache running OS 5.4R2'
p2073
asS'Ixia | embedded || specialized'
p2074
(lp2075
S'Ixia 1600 -- Ixia Socket/Serial TCL traffic generation and analysis server'
p2076
asS'FreeBSD | FreeBSD | 5.X | general purpose'
p2077
(lp2078
S'FreeBSD 5.0-CURRENT (Apr 2002)'
p2079
aS'FreeBSD 5.0-RELEASE'
p2080
aS'FreeBSD 5.0-RELEASE'
p2081
aS'FreeBSD 5.0-RELEASE or -CURRENT (Jan 2003)'
p2082
aS'FreeBSD 5.1-CURRENT (June 2003) on Sparc64'
p2083
aS'FreeBSD 5.1-RELEASE (x86)'
p2084
aS'FreeBSD 5.2'
p2085
aS'FreeBSD 5.2 - 5.3'
p2086
aS'FreeBSD 5.2-CURRENT - 5.3 (x86) with pf scrub all'
p2087
aS'FreeBSD 5.2.1 (SPARC)'
p2088
aS'FreeBSD 5.3'
p2089
aS'FreeBSD 5.3'
p2090
aS'FreeBSD 5.3-RELEASE'
p2091
aS'FreeBSD 5.3-RELEASE'
p2092
aS'FreeBSD 5.3-STABLE'
p2093
aS'FreeBSD 5.3-STABLE'
p2094
aS'FreeBSD 5.4'
p2095
aS'FreeBSD 5.4-RELEASE'
p2096
asS'Gatorbox | GatorShare || bridge'
p2097
(lp2098
S'Sun SunOS 4.1.1 - 4.1.4 (or derivative)'
p2099
asS'SpeedStream | embedded || broadband router'
p2100
(lp2101
S'DSL Router: FlowPoint 144/22XX v3.0.8 or SpeedStream 5851 v4.0.5.1'
p2102
aS'Speedstream 5871 DSL router'
p2103
asS'Pirelli | embedded || broadband router'
p2104
(lp2105
S'Pirelli Microbusiness ADSL router'
p2106
asS'Novell | NetWare | 3.X | general purpose'
p2107
(lp2108
S'Novell NetWare 3.12 or 386 TCP/IP'
p2109
asS'NetMatrix | embedded || general purpose'
p2110
(lp2111
S'IPAD (Internet Protocol Adapter) Model 5000 or V.1.52'
p2112
asS'Nokia | IPSO || firewall'
p2113
(lp2114
S'Nokia IP530 Network Appliance (IPSO 3.4-3.4.2)'
p2115
aS'Nokia IPSO 3.7 running CheckPoint FW-1'
p2116
aS'Nokia IPSO 3.8.x'
p2117
asS'Lexmark | embedded || printer'
p2118
(lp2119
S'Lexmark M412n network printer'
p2120
aS'Lexmark Marknet X2031e printer'
p2121
aS'Lexmark Optra N Laser Printer'
p2122
aS'Lexmark Optra network printer'
p2123
aS'Lexmark Optra printer'
p2124
aS'Lexmark Optra printer w/MarkNet XL Network Adapter'
p2125
aS'Lexmark Optra S Printer'
p2126
aS'Lexmark T520 printer'
p2127
aS'Lexmark T522 printer'
p2128
aS'Lexmark T522/T622 printer'
p2129
asS'IBM | embedded || remote management'
p2130
(lp2131
S'Alcatel Advanced Reflexes IP Phone or IBM x450 remote management console'
p2132
aS'IBM BladeCenter Remote Management Module'
p2133
aS'IBM Remote Supervisor Adapter II'
p2134
asS'NIB | embedded || printer'
p2135
(lp2136
S'NIB 450-E printer network interface'
p2137
asS'Huawei | VRP || switch'
p2138
(lp2139
S'3Com 7700/8800 Switch or Huawei S6506R routing switch VRP 3.10'
p2140
asS'Siemens | embedded || specialized'
p2141
(lp2142
S'Siemens S7-400 programmable logic controller'
p2143
asS'Digitel | embedded || router'
p2144
(lp2145
S'Digitel NetRouter NR3000'
p2146
aS'Digitel NetRouter NR3100'
p2147
asS'Novell | NetWare | 4.X | general purpose'
p2148
(lp2149
S'NetWare 4.11 SP7- 5 SP3A BorderManager 3.5'
p2150
aS'NetWare 4.11 SP8a - NetWare 5 SP4'
p2151
aS'novell netware 4.11'
p2152
asS'Compatible Systems | embedded || router'
p2153
(lp2154
S'Compatible Systems (RISC Router, IntraPort)'
p2155
aS'Broadband Router (Farralon Netopia or Compatible Systems 900i)'
p2156
asS'Apple | Mac OS | 9.X | general purpose'
p2157
(lp2158
S'Apple Mac OS 7.5.5 - 9'
p2159
aS'Apple Mac OS 9 - 9.1'
p2160
aS'Apple Mac OS 9.2.2'
p2161
aS'Apple MacOS 9.2.2'
p2162
aS'Apple Mac OS 9, or HP-UX 11.00'
p2163
asS'DEC | OpenVMS | 7.X | general purpose'
p2164
(lp2165
S'Compaq Tru64 UNIX 5.0 or DEC OpenVMS 7.2'
p2166
aS'DEC OpenVMS 6.2 - 7.2-1 on VAX or AXP'
p2167
aS'DEC OpenVMS 7.1'
p2168
aS'DEC OpenVMS 7.1 ALPHA'
p2169
aS"DEC OpenVMS 7.1 Alpha running DIGITAL's UCX v4.1ECO2 TCP/IP package"
p2170
aS"DEC OpenVMS 7.1 using Process Software's TCPWare 5.3 TCP/IP package"
p2171
aS'DEC OpenVMS 7.2'
p2172
aS'DEC OpenVMS 7.2'
p2173
aS'DEC OpenVMS 7.2 Alpha'
p2174
aS'DEC OpenVMS 7.3'
p2175
aS'DEC OpenVMS 7.3 (Alpha) TCP/IP 5.3'
p2176
aS'DEC OpenVMS 7.3 (Compaq TCP/IP 5.3)'
p2177
aS'DEC OpenVMS 7.3-1'
p2178
aS'DEC OpenVMS Alpha 7.2-3'
p2179
aS'DEC OpenVMS Alpha V7.1-1H2 running DIGITAL TCP/IP Services (UCX) V4.2'
p2180
aS'DEC OpenVMS V7.1 on VAX 6000-530'
p2181
aS"DEC OpenVMS v7.1 VAX running Process Software's TCPWare 5.1-5 TCP/IP package"
p2182
aS'DEC OpenVMS v7.3 on VAXStation 4000/60'
p2183
aS'DEC OpenVMS VAX V7.3, Process Software MultiNet V5.0'
p2184
aS"DEC OpenVMS/Alpha 7.1 using Process Software's TCPWare V5.3-4"
p2185
aS'DEC VMS MultiNet V4.2(16)/ OpenVMS V7.1-2'
p2186
aS'DEC VMS MultiNet V4.4 / OpenVMS V7.1'
p2187
asS'Sequent | DYNIX || general purpose'
p2188
(lp2189
S'Sequent DYNIX/PTX 4.4.2'
p2190
aS'Sequent DYNIX/ptx 4.4.6 x86'
p2191
asS'Data General | DG/UX || general purpose'
p2192
(lp2193
S'Data General DG/UX Release R4.11MU02'
p2194
aS'Data General DG/UX Release R4.20MU02'
p2195
aS'Data General DG/UX Release R4.20MU04'
p2196
aS'Data General DG/UX Release R4.20MU06'
p2197
asS'ASCOM | embedded || broadband router'
p2198
(lp2199
S'FlowPoint/2000 - 2200 SDSL Router (v1.2.3 - 3.0.4) or ASCOM Timeplex Access Router'
p2200
asS'CastleNet | embedded || broadband router'
p2201
(lp2202
S'CastleNet AR502/GlobespanVirata GS8100 (same thing) DSL router'
p2203
asS'OpenBSD | OpenBSD | 2.X | general purpose'
p2204
(lp2205
S'OpenBSD 2.1 - 2.3/SPARC'
p2206
aS'OpenBSD 2.1/x86'
p2207
aS'OpenBSD 2.2 - 2.3'
p2208
aS'OpenBSD 2.6 with all available patches as of roughly Feb01'
p2209
aS'OpenBSD 2.6-2.8'
p2210
aS'OpenBSD 2.6-2.8'
p2211
aS'OpenBSD 2.8 (x86)'
p2212
aS'OpenBSD 2.9-beta through release (x86)'
p2213
aS'OpenBSD 2.9-stable'
p2214
aS'OpenBSD Post 2.4 (November 1998) - 2.5'
p2215
asS'VegaStream | embedded || VoIP gateway'
p2216
(lp2217
S'Vega 50/400'
p2218
asS'NetJet | embedded || printer'
p2219
(lp2220
S'NetJet Version 3.0 - 4.0 Printer'
p2221
asS'DEC | Ultrix || general purpose'
p2222
(lp2223
S'DEC Ultrix 4.1'
p2224
aS'DEC Ultrix 4.2 - 4.5'
p2225
asS'Apple | Mac OS | 7.X | general purpose'
p2226
(lp2227
S'Apple Mac OS 7.0-7.1 With MacTCP 1.1.1 - 2.0.6'
p2228
aS'Apple Mac OS 7.1'
p2229
asS'GNU | Hurd || general purpose'
p2230
(lp2231
S'GNU Hurd 0.2 (GNUmach-1.2/Hurd-0.2) x86'
p2232
asS'Motorola | VxWorks || broadband router'
p2233
(lp2234
S'Motorola SurfBoard 4401 cable modem'
p2235
aS'Motorola SurfBoard SB4100E Cable Modem'
p2236
aS'Motorola Surfboard SB5100 cable modem'
p2237
aS'Motorola SURFboard SBG1000 Broadband router'
p2238
asS'Avaya | embedded || telecom-misc'
p2239
(lp2240
S'Avaya TN2302 Prowler/Medpro H.323 gateway'
p2241
asS'Pigtail | VxWorks || VoIP phone'
p2242
(lp2243
S'Pigtail Express VoIP phone (runs VxWorks)'
p2244
asS'D-Link | embedded || WAP'
p2245
(lp2246
S'D-Link DI-713P WAP'
p2247
aS'D-Link DI-713P Wireless Gateway (2.57 build 3a)'
p2248
aS'D-Link DI-774 WAP'
p2249
aS'D-Link DWL-5000AP WAP/BSP 1.3'
p2250
aS'Wireless access point (WAP): D-Link DRC-1000AP or 3Com Access Point 2000'
p2251
asS'Edimax | embedded || print server'
p2252
(lp2253
S'Edimax PS-1001 Print Server model'
p2254
aS'Edimax PS-901 Print Server model 1P/13E-9.5.12'
p2255
asS'Perle | embedded || terminal server'
p2256
(lp2257
S'Perle JetStream 8500 Serial/Access Server, v 2.6.0'
p2258
asS'IBM | OS/2 || general purpose'
p2259
(lp2260
S'IBM OS/2 V 2.1'
p2261
aS'IBM OS/2 V.3'
p2262
aS'IBM OS/2 Warp 4.0'
p2263
aS'IBM OS/2 Warp Server for E-business (Aurora) Beta'
p2264
aS'IBM OS/2 Warp Server for E-business (Aurora) Beta'
p2265
aS'OS/2 Warp Server for eBusiness 4.52'
p2266
asS'UTStarcom | embedded || VoIP phone'
p2267
(lp2268
S'UTStarcom F1000 wifi voip phone'
p2269
asS'VersaNet | embedded || terminal server'
p2270
(lp2271
S'VersaNet ISP-Accelerator(TM) Remote Access Server'
p2272
asS'Epson | embedded || printer'
p2273
(lp2274
S'EPSON Ethernet Ver. 4.20 6.04, 13395E-98'
p2275
aS'Epson Stylus 800n/EPSON Ethernet Ver. 4.20'
p2276
asS'DEC | embedded || terminal server'
p2277
(lp2278
S'DECserver 700-16 terminal server, Network Access SW V2.2'
p2279
asS'Siemens | embedded || broadband router'
p2280
(lp2281
S'Siemens Broadband Router 5940 T1/E1'
p2282
aS'Siemens Santis 50 Wireless adsl router'
p2283
aS'Siemens Speedstream 2602 DSL/Cable router'
p2284
asS'Pelco | embedded || webcam'
p2285
(lp2286
S'Pelco Network Camera'
p2287
asS'Cyclades | Cyras || router'
p2288
(lp2289
S'Cyclades PathRouter'
p2290
aS'Cyclades PathRouter/PC'
p2291
asS'Capellix | embedded || storage-misc'
p2292
(lp2293
S'Capellix 3000 Modular SAN Switch'
p2294
asS'Packeteer | pSOS || load balancer'
p2295
(lp2296
S'Packeteer PacketShaper 4000 v4.1.3b2 2000-04-05'
p2297
aS'pSOS embedded IP stack, such as Packeteer IP-PacketShaper 2000 V3.1'
p2298
asS'Atari | Atari || general purpose'
p2299
(lp2300
S'Atari Mega STE running JIS-68k 3.0'
p2301
asS'D-Link | embedded || broadband router'
p2302
(lp2303
S'D-Link 2630 Broadband router'
p2304
aS'D-Link 704P Broadband Gateway or DI-713P WAP'
p2305
aS'D-Link DI-604 Broadband router'
p2306
aS'D-Link DI-604 Ethernet Broadband Router'
p2307
aS'D-Link DI-604 Ethernet router'
p2308
aS'D-Link DI-701, Version 2.22'
p2309
aS'D-Link DI-704 cable/DSL residential gateway, firmware 2.50 build 9'
p2310
aS'D-Link DI-704P Cable/DSL Residential Gateway'
p2311
aS'D-Link DI-804 Cable/DSL Residential Gateway'
p2312
aS'D-Link DSL-300G+ DSL modem'
p2313
aS'D-Link DSL-500 DSL modem'
p2314
aS'D-Link DSL-500 DSL modem'
p2315
aS'D-Link Systems DI-713P Wireless Gateway'
p2316
aS'D-Link VPN Router DI-714P+/DI-804HV'
p2317
aS'DI-701 Residential Gateway or KA9Q NOS - KO4KS-TNOS v. 2.30'
p2318
aS'Linux 2.4.27 or D-Link DSL-500T (running linux 2.4)'
p2319
asS'Cayman | embedded || broadband router'
p2320
(lp2321
S'Cayman 2E DSL/CABLE router'
p2322
aS'Cayman 3000 DSL Router'
p2323
aS'Netopia Cayman 3346 DSL router'
p2324
asS'Nortel | embedded || telecom-misc'
p2325
(lp2326
S'Nortel Micronode telephone switch running OS version GSM15'
p2327
aS'Nortel Passport 4400 Series multiservice access switch'
p2328
asS'AtheOS | AtheOS || general purpose'
p2329
(lp2330
S'AtheOS ( www.atheos.cx )'
p2331
aS'AtheOS/Syllable 0.4.2'
p2332
asS'BSDI | BSD/OS | 2.X | general purpose'
p2333
(lp2334
S'BSDI BSD/OS 2.0 - 2.1'
p2335
asS'Okidata | embedded || printer'
p2336
(lp2337
S'OkiData 20nx printer with OkiLAN ethernet module'
p2338
aS'Okidata 7200 Printer'
p2339
aS'Okidata OKI C5100 Laser Printer'
p2340
aS'Okidata OKI C7200 Printer'
p2341
asS'Labtam | embedded || X terminal'
p2342
(lp2343
S'Labtam MT300, X-Terminal Kernel'
p2344
asS'Megabit | embedded || terminal server'
p2345
(lp2346
S'MegaBit Gear TE4111C modem'
p2347
asS'Tahoe | Tahoe OS || router'
p2348
(lp2349
S'Tahoe OS 1.2.1 running on Tahoe router'
p2350
asS'Cisco | IOS | 12.X | WAP'
p2351
(lp2352
S'Cisco 1200 access point (WAP) running IOS 12.2(8)'
p2353
aS'Cisco AP1220 WAP running IOS 12.2(11)'
p2354
asS'Cisco | IOS || router'
p2355
(lp2356
S'Cisco CPA2500 (68030) or 2511 router'
p2357
aS'Cisco uBR 7223 router'
p2358
asS'Signal | embedded || VoIP gateway'
p2359
(lp2360
S'CPV Telsey Broadband + voip residential gateway or Signal SP100x VoIP appliance'
p2361
asS'Secure Computing | embedded || firewall'
p2362
(lp2363
S'Secure Computing SECUREZone Firewall Version 2.0'
p2364
aS'Secure Computing Sidewinder firewall 3.2 update 4'
p2365
aS'Secure Computing Sidewinder firewall 5.2.1.06'
p2366
asS'AudioCodes | embedded || VoIP gateway'
p2367
(lp2368
S'AudioCodes MP-104 VoIP Gateway FXO'
p2369
aS'AudioCodes MP-108 VoIP Gateway FXS'
p2370
asS'Virtual Access | embedded || router'
p2371
(lp2372
S'Virtual Access LinXpeed Pro 120 router running Software 7.4.33CM'
p2373
asS'Planet | embedded || switch'
p2374
(lp2375
S'Planet FGSW-2620VS switch'
p2376
asS'Computone | embedded || terminal server'
p2377
(lp2378
S'Computone Power Rack IntelliServer terminal server Release 1.5.4d'
p2379
asS'DEC | TOPS-20 || general purpose'
p2380
(lp2381
S'DEC TOPS-20 Monitor 7(102540)-1,TD-1'
p2382
aS'DEC TOPS-20 Monitor 7(21733),KL-10 (DEC 2065)'
p2383
asS'Compaq | Windows | PocketPC/CE | terminal'
p2384
(lp2385
S'Compaq T1010 Thin Client Windows CE 2.12'
p2386
asS'Cisco | embedded || hub'
p2387
(lp2388
S'Cisco 1538M HUB running Cisco 1538M EES (1.00.00) or Assured Access Technology ISAS Switch Release-2.3.0 or Thomson Multimedia RCA DCM245 Cable Modem'
p2389
asS'WatchGuard | embedded || firewall'
p2390
(lp2391
S'WatchGuard Firebox 700 firewall'
p2392
aS'WatchGuard Firebox II version 7.00'
p2393
aS'WatchGuard Firebox SOHO 6tc firewall'
p2394
aS'WatchGuard Firebox SOHO V.5-V.6 firewall'
p2395
aS'WatchGuard Firebox X700'
p2396
asS'Sun | Solaris | 10 | general purpose'
p2397
(lp2398
S'Sun Solaris 5.10.1'
p2399
aS'SunOS 5.10 (sparc)'
p2400
aS'SunOS webbox 5.10 Generic'
p2401
asS'IBM | AIX | 4.X | general purpose'
p2402
(lp2403
S'IBM AIX 4.0 - 4.2'
p2404
aS'IBM AIX 4.02.0001.0000'
p2405
aS'IBM AIX 4.1'
p2406
aS'IBM AIX 4.1-4.1.5'
p2407
aS'IBM AIX 4.2'
p2408
aS'IBM AIX 4.2-4.3.3'
p2409
aS'IBM AIX 4.2.X-4.3.3.0'
p2410
aS'IBM AIX 4.3'
p2411
aS'IBM AIX 4.3.1 on a IBM RS/6000 R40'
p2412
aS'IBM AIX 4.3.2.0-4.3.3.0 on an IBM RS/*'
p2413
aS'IBM AIX 4.3.3.0 on an IBM RS/*'
p2414
aS'IBM AIX v4.1 running on a C10'
p2415
aS'IBM AIX v4.2'
p2416
aS'IBM AIX Version 4.3'
p2417
asS'Telindus | embedded || broadband router'
p2418
(lp2419
S'Telindus 11xx ADSL Router'
p2420
asS'QNX | QNX || general purpose'
p2421
(lp2422
S'QNX 4.24 - 4.25 realtime embedded OS'
p2423
aS'QNX 6.00 realtime embedded OS (x86)'
p2424
aS'QNX 6.00 realtime embedded OS (x86)'
p2425
asS'IronPort | AsyncOS || specialized'
p2426
(lp2427
S'IronPort C60 email security appliance'
p2428
asS'Convex | ConvexOS || general purpose'
p2429
(lp2430
S'Convex OS Release 10.1'
p2431
asS'GrandStream | embedded || VoIP adapter'
p2432
(lp2433
S'GrandStream 486 VoIP adapter'
p2434
asS'Novell | NetWare | 6.X | general purpose'
p2435
(lp2436
S'Novell NetWare 5.1-6.0'
p2437
aS'Novell NetWare 5.1SP4 - 6.0'
p2438
aS'Novell NetWare 5.1SP5 - 6.5'
p2439
aS'NetWare 6.5 SP2'
p2440
aS'Novell Netware 6 (no service packs)'
p2441
aS'Novell NetWare 6 SP1'
p2442
aS'Novell NetWare 6 SP2'
p2443
aS'Novell NetWare 6.0 SP3'
p2444
aS'Novell Netware 6.0 SP4'
p2445
aS'Novell Netware 6.5 SP2'
p2446
asS'Xyplex | MAXserver || terminal server'
p2447
(lp2448
S'Xyplex 1600 terminal server running MAXserver V6.0.2 firmware'
p2449
aS'Xyplex Maxserver 1600 Terminal Server'
p2450
asS'Cisco | IOS | 11.X | router'
p2451
(lp2452
S'Cisco 2501/2504/4500 router with IOS Version 10.3(15) - 11.1(20)'
p2453
aS'Cisco 1600/3640/7513 Router (IOS 11.2(14)P)'
p2454
aS'Cisco 4500 router running IOS 11.2(2)'
p2455
aS'Cisco 4500-M router running IOS 11.3(6) IP Plus'
p2456
aS'Cisco 7206 router (IOS 11.1(17)'
p2457
aS'Cisco 7206 running IOS 11.1(24)'
p2458
aS'Cisco IOS v11.14(CA)/12.0.2aT1/v12.0.3T'
p2459
asS'CNT | embedded || storage-misc'
p2460
(lp2461
S'CNT UltraNet EDGE (SAN Router) V. 1.4.1.2'
p2462
asS'Alcatel | embedded || switch'
p2463
(lp2464
S'Alcatel OmniStack switch version 4.3.3 GA'
p2465
asS'Symantec | embedded || firewall'
p2466
(lp2467
S'Symantec Gateway Security 5310 Firewall'
p2468
aS'Symantec Gateway Security 5420 firewall'
p2469
asS'Checkpoint | Windows | NT/2K/XP | firewall'
p2470
(lp2471
S'Check Point FireWall-1 4.0 SP-5 (IPSO build)'
p2472
aS'Checkpoint Firewall-1 on Windows NT 4.0 Server SP4-SP5'
p2473
aS'Checkpoint SecurePlatform NG FP3'
p2474
asS'Cobalt | Linux | 2.0.X | general purpose'
p2475
(lp2476
S'Cobalt Linux 4.0 (Fargo) Kernel 2.0.34C52_SK on MIPS or TEAMInternet Series 100 WebSense'
p2477
asS'Fortinet | embedded || firewall'
p2478
(lp2479
S'Fortinet firewall Fortigate 50A (FortiOS V2.80)'
p2480
aS'Fortinet firewall Fortigate 60'
p2481
asS'Lantronix | embedded || terminal server'
p2482
(lp2483
S'Lantronix Consoleserver 800'
p2484
aS'Lantronix ETS16 terminal server Version V3.4/5(961028)'
p2485
aS'Lantronix ETS16P terminal server Version V3.5/2(970721)'
p2486
aS'Lantronix SCS1600 secure console server version V1.0/2(010620)'
p2487
aS'Lantronix SCS1600 secure console server version V1.0/2(010620)'
p2488
asS'Apple | Newton OS || PDA'
p2489
(lp2490
S'Apple Newton MessagePad 2100, Newton OS 2.1'
p2491
asS'DEC | DIGITAL UNIX | 5.X | general purpose'
p2492
(lp2493
S'DEC OSF1 (AKA Compaq/DIGITAL Tru64 UNIX) Version 5.0.0'
p2494
aS'OSF/1 (AKA Compaq/DIGITAL Tru64 UNIX) 5.60'
p2495
asS'US Robotics | embedded || terminal server'
p2496
(lp2497
S'US Robotics Total Control NETServer Card'
p2498
asS'Intergraph | CLiX || general purpose'
p2499
(lp2500
S'Intergraph CLiX R3.1 Vr.7.6.20 6480'
p2501
aS'Intergraph Workstation (2000 Series) running CLiX R3.1'
p2502
asS'Borderware | embedded || firewall'
p2503
(lp2504
S'Borderware 5.0 Firewall'
p2505
aS'Borderware 5.2 firewall'
p2506
aS'Borderware 6.0.2 firewall'
p2507
asS'IBM | OS/400 | V5 | general purpose'
p2508
(lp2509
S'IBM AS/400 running OS/400 5.1'
p2510
aS'IBM OS/400 V5R1 - V5R2'
p2511
aS'IBM OS/400 V5R1M0'
p2512
aS'IBM OS/400 V5R2M0'
p2513
aS'IBM OS/400 V5R2M0'
p2514
asS'WYSE | WYSE OS || terminal server'
p2515
(lp2516
S'Winterm WYSE System Version 4.2.077'
p2517
aS'WYSE Winterm terminal server'
p2518
asS'SCO | SCO UNIX || general purpose'
p2519
(lp2520
S'SCO Open Desktop 2.0'
p2521
aS'SCO UNIX release 3.2'
p2522
asS'Lantronix | Punix || terminal server'
p2523
(lp2524
S'Lantronix ETS16 terminal server'
p2525
asS'Axent | Windows | NT/2K/XP | firewall'
p2526
(lp2527
S'Axent Raptor Firewall running on Windows NT'
p2528
asS'Thomson | embedded || broadband router'
p2529
(lp2530
S'Thomson THG 520 Cable Modem'
p2531
asS'Aironet | embedded || bridge'
p2532
(lp2533
S'Aironet 630-2400 V3.3P Wireless LAN bridge'
p2534
aS'Aironet Wireless Bridge running firmware V5.0J'
p2535
asS'OpenBSD | OpenBSD | 3.X | general purpose'
p2536
(lp2537
S'OpenBSD 3.0 or 3.3'
p2538
aS'OpenBSD 3.0 SPARC with pf "scrub in all"'
p2539
aS'OpenBSD 3.0-STABLE (x86)'
p2540
aS'OpenBSD 3.1 (x86)'
p2541
aS'OpenBSD 3.1 (x86)'
p2542
aS'OpenBSD 3.1 on an Alpha'
p2543
aS'OpenBSD 3.2 (x86)'
p2544
aS'OpenBSD 3.2 with pf scrub and no-df'
p2545
aS'OpenBSD 3.3'
p2546
aS'OpenBSD 3.3 x86 with pf "scrub in all"'
p2547
aS'OpenBSD 3.3 x86 with pf "scrub in all"'
p2548
aS'OpenBSD 3.4'
p2549
aS'OpenBSD 3.4 (X86)'
p2550
aS'OpenBSD 3.4 x86'
p2551
aS'OpenBSD 3.4 x86 with pf "scrub in all"'
p2552
aS'OpenBSD 3.4 x86 with pf "scrub in all"'
p2553
aS'OpenBSD 3.4-BETA'
p2554
aS'OpenBSD 3.5 or 3.6'
p2555
aS'OpenBSD 3.5 or 3.6'
p2556
aS'OpenBSD 3.5 or 3.6'
p2557
aS'OpenBSD 3.6'
p2558
aS'OpenBSD 3.6'
p2559
aS'OpenBSD 3.6'
p2560
aS'OpenBSD 3.6'
p2561
aS'OpenBSD 3.6'
p2562
aS'OpenBSD 3.6'
p2563
aS'OpenBSD 3.6 (i386)'
p2564
aS'OpenBSD 3.6 x86 with pf "scrub in all"'
p2565
aS'OpenBSD 3.7'
p2566
asS'Panasonic | embedded || webcam'
p2567
(lp2568
S'Panasonic WJ-NT104 Network video device'
p2569
aS'Panasonic network camera or SMC WAP'
p2570
asS'Auspex | AuspexOS || fileserver'
p2571
(lp2572
S'Auspex Fileserver (AuspexOS 1.9.1/SunOS 4.1.4)'
p2573
asS'HP | HP-UX | 7.X | general purpose'
p2574
(lp2575
S'HP-UX 7.0'
p2576
asS'Avocent | embedded || terminal server'
p2577
(lp2578
S'Avocent CPS 1610 serial port server'
p2579
asS'Dell | embedded || switch'
p2580
(lp2581
S'Dell PowerConnect Switch 3324 or 3348'
p2582
aS'Dell PowerConnect Switch 5324'
p2583
aS'Dell PowerConnect Switch running SW V.1.0.0.52'
p2584
asS'QMS | embedded || printer'
p2585
(lp2586
S'QMS Magicolor 2200 DeskLaser printer'
p2587
asS'Conexant | embedded || broadband router'
p2588
(lp2589
S'Conexant ADSL Router'
p2590
aS'Sphairon Turbolink ADSL Modem/Router (AR800C2-B01B)'
p2591
asS'Vanguard | embedded || router'
p2592
(lp2593
S'MOTOROLA VANGUARD 320 IP router running OS version 5.4'
p2594
aS'Motorola Vanguard 320 multi-protocol network access device V5.5 - 5.6'
p2595
asS'Acorn | RISC OS || general purpose'
p2596
(lp2597
S'Acorn RISC OS 3.60 (Acorn TCP/IP Stack 4.07)'
p2598
aS'Acorn RISC OS 3.70 using AcornNet TCP/IP stack or RISC OS 4 (Pace, RISCOS Ltd)'
p2599
asS'Cisco | embedded || load balancer'
p2600
(lp2601
S'Cisco CSS 11501 Content Services Switch'
p2602
aS'Cisco CSS 11501 Content Services Switch'
p2603
aS'Cisco Local Director 420 version 2.1.1'
p2604
aS'Cisco Localdirector load balancer'
p2605
aS'Cisco LocalDirector load balancer'
p2606
asS'Barix | embedded || media device'
p2607
(lp2608
S'Barix Exstreamer network MP3 player'
p2609
asS'NSG | embedded || router'
p2610
(lp2611
S'NSG-300/500 series router running Version 7.6.x'
p2612
asS'Madge | embedded || switch'
p2613
(lp2614
S'Madge Smart Ringswitch'
p2615
asS'Compaq | embedded || remote management'
p2616
(lp2617
S'Compaq Inside Management Board'
p2618
aS'Compaq Integrated Lights Out remote configuration Board'
p2619
aS'Compaq ProLiant DL580 Integrated Lights-Out remote configuration board V1.06'
p2620
asS'F5 Labs | embedded || load balancer'
p2621
(lp2622
S'F5 Labs BIG-IP Load balancer Kernel 4.1.1PTF-03 (x86)'
p2623
aS'F5 Labs BIG-IP load balancer kernel 4.2PTF-05a (x86)'
p2624
asS'BBIagent | Linux | 2.4.X | software router'
p2625
(lp2626
S'BBIagent v1.8.1 software router'
p2627
asS'Xerox | embedded || printer'
p2628
(lp2629
S'Dell Laser Printer 5100cn'
p2630
aS'Xerox 8830 Plotter'
p2631
aS'Xerox Document Centre 440 w/ CentreWare Internet Services'
p2632
aS'Xerox Document Centre ColorSeries 50'
p2633
aS'Xerox DocuPrint C55'
p2634
aS'Xerox Docuprint N2125 network printer'
p2635
aS'Xerox DocuPrint N24/N32/N40 Network Laser Printer'
p2636
aS'Xerox DocuPrint N40'
p2637
as.